(dp1
S'output'
p2
S"<type 'exceptions.UnicodeDecodeError'> 'charmap' codec can't decode byte 0x98 in position 3342: character maps to <undefined>"
p3
sS'layer'
p4
S'D:\\work\\web2py_src\\web2py\\applications\\news\\views\\default/index.json'
p5
sS'code'
p6
S'import json\nresponse.write(\'\\r\\n\', escape=False)\nresponse.write(json.dumps(categories.as_list()))\nresponse.write(\'\\r\\n\', escape=False)\nfor new in news:\n    response.write(\'\\r\\n\\t\', escape=False)\n    response.write(json.dumps(news[new].as_list(), encoding="CP1251"))\n    response.write(\'\\r\\n\', escape=False)\n    pass\nresponse.write(\'\\r\\n\', escape=False)'
p7
sS'snapshot'
p8
(dp9
S'exception'
p10
(dp11
S'__getslice__'
p12
S"<method-wrapper '__getslice__' of exceptions.UnicodeDecodeError object>"
p13
sS'encoding'
p14
S"'charmap'"
p15
sS'__str__'
p16
S"<method-wrapper '__str__' of exceptions.UnicodeDecodeError object>"
p17
sS'__reduce__'
p18
S'<built-in method __reduce__ of exceptions.UnicodeDecodeError object>'
p19
sS'__dict__'
p20
S'{}'
p21
sS'__sizeof__'
p22
S'<built-in method __sizeof__ of exceptions.UnicodeDecodeError object>'
p23
sS'__init__'
p24
S"<method-wrapper '__init__' of exceptions.UnicodeDecodeError object>"
p25
sS'__setattr__'
p26
S"<method-wrapper '__setattr__' of exceptions.UnicodeDecodeError object>"
p27
sS'__reduce_ex__'
p28
S'<built-in method __reduce_ex__ of exceptions.UnicodeDecodeError object>'
p29
sS'end'
p30
S'3343'
p31
sS'__new__'
p32
S'<built-in method __new__ of type object>'
p33
sS'__format__'
p34
S'<built-in method __format__ of exceptions.UnicodeDecodeError object>'
p35
sS'__class__'
p36
S"<type 'exceptions.UnicodeDecodeError'>"
p37
sS'start'
p38
S'3342'
p39
sS'__doc__'
p40
S"'Unicode decoding error.'"
p41
sS'object'
p42
S"'\\xd0\\x93\\xd0\\xbe\\xd1\\x81\\xd1\\x83\\xd0\\xb4\\xd0\\xb0\\xd1\\x80\\xd1\\x81\\xd1\\x82\\xd0\\xb2\\xd0\\xb5\\xd0\\xbd\\xd0\\xbd\\xd1\\x8b\\xd0\\xb9 \\xd1\\x81\\xd0\\xb5\\xd0\\xba\\xd1\\x80\\xd0\\xb5\\xd1\\x82\\xd0\\xb0\\xd1\\x80\\xd1...\\xbb\\xd1\\x83\\xd1\\x87\\xd0\\xb5\\xd0\\xbd\\xd0\\xb8\\xd0\\xb8 \\xd1\\x83\\xd0\\xb1\\xd0\\xb5\\xd0\\xb6\\xd0\\xb8\\xd1\\x89\\xd0\\xb0 \\xd0\\xb2 \\xd0\\x98\\xd1\\x81\\xd0\\xbb\\xd0\\xb0\\xd0\\xbd\\xd0\\xb4\\xd0\\xb8\\xd0\\xb8.'"
p43
sS'__getitem__'
p44
S"<method-wrapper '__getitem__' of exceptions.UnicodeDecodeError object>"
p45
sS'__setstate__'
p46
S'<built-in method __setstate__ of exceptions.UnicodeDecodeError object>'
p47
sS'__getattribute__'
p48
S"<method-wrapper '__getattribute__' of exceptions.UnicodeDecodeError object>"
p49
sS'args'
p50
S"('charmap', '\\xd0\\x93\\xd0\\xbe\\xd1\\x81\\xd1\\x83\\xd0\\xb4\\xd0\\xb0\\xd1\\x80\\xd1\\x81\\xd1\\x82\\xd0\\xb2\\xd0\\xb5\\xd0\\xbd\\xd0\\xbd\\xd1\\x8b\\xd0\\xb9 \\xd1\\x81\\xd0\\xb5\\xd0\\xba\\xd1\\x80\\xd0\\xb5\\xd1\\x82\\xd0\\xb0\\xd1\\x80\\xd1...\\xbb\\xd1\\x83\\xd1\\x87\\xd0\\xb5\\xd0\\xbd\\xd0\\xb8\\xd0\\xb8 \\xd1\\x83\\xd0\\xb1\\xd0\\xb5\\xd0\\xb6\\xd0\\xb8\\xd1\\x89\\xd0\\xb0 \\xd0\\xb2 \\xd0\\x98\\xd1\\x81\\xd0\\xbb\\xd0\\xb0\\xd0\\xbd\\xd0\\xb4\\xd0\\xb8\\xd0\\xb8.', 3342, 3343, 'character maps to <undefined>')"
p51
sS'reason'
p52
S"'character maps to <undefined>'"
p53
sS'__subclasshook__'
p54
S'<built-in method __subclasshook__ of type object>'
p55
sS'__unicode__'
p56
S'<built-in method __unicode__ of exceptions.UnicodeDecodeError object>'
p57
sS'__delattr__'
p58
S"<method-wrapper '__delattr__' of exceptions.UnicodeDecodeError object>"
p59
sS'__repr__'
p60
S"<method-wrapper '__repr__' of exceptions.UnicodeDecodeError object>"
p61
sS'__hash__'
p62
S"<method-wrapper '__hash__' of exceptions.UnicodeDecodeError object>"
p63
ssS'evalue'
p64
S"'charmap' codec can't decode byte 0x98 in position 3342: character maps to <undefined>"
p65
sS'request'
p66
cgluon.html
XML_unpickle
p67
(S's\x7fT\x00\x00<div><table><tr><td style="font-weight:bold;vertical-align:top">ajax</td><td valign="top">:</td><td><div>False</div></td></tr><tr><td style="font-weight:bold;vertical-align:top">application</td><td valign="top">:</td><td><div>news</div></td></tr><tr><td style="font-weight:bold;vertical-align:top">args</td><td valign="top">:</td><td><div><table></table></div></td></tr><tr><td style="font-weight:bold;vertical-align:top">body</td><td valign="top">:</td><td><div>&lt;cStringIO.StringO object at 0x0BFA8480&gt;</div></td></tr><tr><td style="font-weight:bold;vertical-align:top">cid</td><td valign="top">:</td><td><div>None</div></td></tr><tr><td style="font-weight:bold;vertical-align:top">client</td><td valign="top">:</td><td><div>127.0.0.1</div></td></tr><tr><td style="font-weight:bold;vertical-align:top">controller</td><td valign="top">:</td><td><div>default</div></td></tr><tr><td style="font-weight:bold;vertical-align:top">cookies</td><td valign="top">:</td><td><div><table><tr><td style="font-weight:bold;vertical-align:top">session_id_admin</td><td valign="top">:</td><td><div>127.0.0.1-339a5dde-2682-48d9-9caf-a58d44f9858a<table><tr><td style="font-weight:bold;vertical-align:top">comment</td><td valign="top">:</td><td><div></div></td></tr><tr><td style="font-weight:bold;vertical-align:top">domain</td><td valign="top">:</td><td><div></div></td></tr><tr><td style="font-weight:bold;vertical-align:top">expires</td><td valign="top">:</td><td><div></div></td></tr><tr><td style="font-weight:bold;vertical-align:top">httponly</td><td valign="top">:</td><td><div></div></td></tr><tr><td style="font-weight:bold;vertical-align:top">max-age</td><td valign="top">:</td><td><div></div></td></tr><tr><td style="font-weight:bold;vertical-align:top">path</td><td valign="top">:</td><td><div></div></td></tr><tr><td style="font-weight:bold;vertical-align:top">secure</td><td valign="top">:</td><td><div></div></td></tr><tr><td style="font-weight:bold;vertical-align:top">version</td><td valign="top">:</td><td><div></div></td></tr></table></div></td></tr><tr><td style="font-weight:bold;vertical-align:top">session_id_news</td><td valign="top">:</td><td><div>127.0.0.1-18f5d805-0ac0-43dd-8116-c208695abdf6<table><tr><td style="font-weight:bold;vertical-align:top">comment</td><td valign="top">:</td><td><div></div></td></tr><tr><td style="font-weight:bold;vertical-align:top">domain</td><td valign="top">:</td><td><div></div></td></tr><tr><td style="font-weight:bold;vertical-align:top">expires</td><td valign="top">:</td><td><div></div></td></tr><tr><td style="font-weight:bold;vertical-align:top">httponly</td><td valign="top">:</td><td><div></div></td></tr><tr><td style="font-weight:bold;vertical-align:top">max-age</td><td valign="top">:</td><td><div></div></td></tr><tr><td style="font-weight:bold;vertical-align:top">path</td><td valign="top">:</td><td><div></div></td></tr><tr><td style="font-weight:bold;vertical-align:top">secure</td><td valign="top">:</td><td><div></div></td></tr><tr><td style="font-weight:bold;vertical-align:top">version</td><td valign="top">:</td><td><div></div></td></tr></table></div></td></tr><tr><td style="font-weight:bold;vertical-align:top">session_id_welcome</td><td valign="top">:</td><td><div>127.0.0.1-8955e61f-7038-42e8-b420-e2f359783fdc<table><tr><td style="font-weight:bold;vertical-align:top">comment</td><td valign="top">:</td><td><div></div></td></tr><tr><td style="font-weight:bold;vertical-align:top">domain</td><td valign="top">:</td><td><div></div></td></tr><tr><td style="font-weight:bold;vertical-align:top">expires</td><td valign="top">:</td><td><div></div></td></tr><tr><td style="font-weight:bold;vertical-align:top">httponly</td><td valign="top">:</td><td><div></div></td></tr><tr><td style="font-weight:bold;vertical-align:top">max-age</td><td valign="top">:</td><td><div></div></td></tr><tr><td style="font-weight:bold;vertical-align:top">path</td><td valign="top">:</td><td><div></div></td></tr><tr><td style="font-weight:bold;vertical-align:top">secure</td><td valign="top">:</td><td><div></div></td></tr><tr><td style="font-weight:bold;vertical-align:top">version</td><td valign="top">:</td><td><div></div></td></tr></table></div></td></tr></table></div></td></tr><tr><td style="font-weight:bold;vertical-align:top">env</td><td valign="top">:</td><td><div><table><tr><td style="font-weight:bold;vertical-align:top">app_folders</td><td valign="top">:</td><td><div>set([&#x27;D:\\\\work\\\\web2py_src\\\\web2py\\\\applications\\\\news\\\\&#x27;, &#x27;D:\\\\work\\\\web2py_src\\\\web2py\\\\applications\\\\welcome\\\\&#x27;, &#x27;D:\\\\work\\\\web2py_src\\\\web2py\\\\applications\\\\admin\\\\&#x27;])</div></td></tr><tr><td style="font-weight:bold;vertical-align:top">applications_parent</td><td valign="top">:</td><td><div>D:\\work\\web2py_src\\web2py</div></td></tr><tr><td style="font-weight:bold;vertical-align:top">cmd_args</td><td valign="top">:</td><td><div><table></table></div></td></tr><tr><td style="font-weight:bold;vertical-align:top">cmd_options</td><td valign="top">:</td><td><div>&lt;Values at 0x310b508: {&#x27;verbose&#x27;: False, &#x27;ip&#x27;: &#x27;127.0.0.1&#x27;, &#x27;with_scheduler&#x27;: False, &#x27;ips&#x27;: [&#x27;fe80::c56:972a:9eb4:ae73%15&#x27;, &#x27;192.168.1.111&#x27;], &#x27;shutdown_timeout&#x27;: 5, &#x27;taskbar&#x27;: False, &#x27;with_coverage&#x27;: False, &#x27;port&#x27;: 8000, &#x27;maxthreads&#x27;: None, &#x27;softcron&#x27;: False, &#x27;server_name&#x27;: &#x27;Neocomp&#x27;, &#x27;bpython&#x27;: False, &#x27;nogui&#x27;: False, &#x27;pid_filename&#x27;: &#x27;httpserver.pid&#x27;, &#x27;extcron&#x27;: False, &#x27;runcron&#x27;: False, &#x27;run_system_tests&#x27;: False, &#x27;test&#x27;: None, &#x27;folder&#x27;: &#x27;D:\\\\work\\\\web2py_src\\\\web2py&#x27;, &#x27;config&#x27;: &#x27;&#x27;, &#x27;import_models&#x27;: False, &#x27;winservice&#x27;: &#x27;&#x27;, &#x27;shell&#x27;: None, &#x27;run&#x27;: &#x27;&#x27;, &#x27;log_filename&#x27;: &#x27;httpserver.log&#x27;, &#x27;debuglevel&#x27;: 30, &#x27;args&#x27;: [&#x27;&#x27;], &#x27;socket_timeout&#x27;: 5, &#x27;ssl_ca_certificate&#x27;: None, &#x27;scheduler&#x27;: None, &#x27;profiler_filename&#x27;: None, &#x27;ssl_private_key&#x27;: &#x27;&#x27;, &#x27;scheduler_groups&#x27;: None, &#x27;password&#x27;: &#x27;&lt;ask&gt;&#x27;, &#x27;request_queue_size&#x27;: 5, &#x27;ssl_certificate&#x27;: &#x27;&#x27;, &#x27;cronjob&#x27;: False, &#x27;numthreads&#x27;: None, &#x27;quiet&#x27;: False, &#x27;interfaces&#x27;: None, &#x27;minthreads&#x27;: None, &#x27;timeout&#x27;: 10, &#x27;plain&#x27;: False, &#x27;nobanner&#x27;: False}&gt;</div></td></tr><tr><td style="font-weight:bold;vertical-align:top">db_sessions</td><td valign="top">:</td><td><div>set([])</div></td></tr><tr><td style="font-weight:bold;vertical-align:top">debugging</td><td valign="top">:</td><td><div>True</div></td></tr><tr><td style="font-weight:bold;vertical-align:top">gluon_parent</td><td valign="top">:</td><td><div>D:\\work\\web2py_src\\web2py</div></td></tr><tr><td style="font-weight:bold;vertical-align:top">http_accept</td><td valign="top">:</td><td><div>text/html,application/xhtml+xml,application/xml;q=0.9,*/*;q=0.8</div></td></tr><tr><td style="font-weight:bold;vertical-align:top">http_accept_encoding</td><td valign="top">:</td><td><div>gzip, deflate</div></td></tr><tr><td style="font-weight:bold;vertical-align:top">http_accept_language</td><td valign="top">:</td><td><div>ru-RU,ru;q=0.8,en-US;q=0.5,en;q=0.3</div></td></tr><tr><td style="font-weight:bold;vertical-align:top">http_cache_control</td><td valign="top">:</td><td><div>max-age=0</div></td></tr><tr><td style="font-weight:bold;vertical-align:top">http_connection</td><td valign="top">:</td><td><div>keep-alive</div></td></tr><tr><td style="font-weight:bold;vertical-align:top">http_cookie</td><td valign="top">:</td><td><div>session_id_welcome=127.0.0.1-8955e61f-7038-42e8-b420-e2f359783fdc; session_id_admin=127.0.0.1-339a5dde-2682-48d9-9caf-a58d44f9858a; session_id_news=127.0.0.1-18f5d805-0ac0-43dd-8116-c208695abdf6</div></td></tr><tr><td style="font-weight:bold;vertical-align:top">http_host</td><td valign="top">:</td><td><div>127.0.0.1:8000</div></td></tr><tr><td style="font-weight:bold;vertical-align:top">http_user_agent</td><td valign="top">:</td><td><div>Mozilla/5.0 (Windows NT 6.1; WOW64; rv:21.0) Gecko/20100101 Firefox/21.0</div></td></tr><tr><td style="font-weight:bold;vertical-align:top">is_jython</td><td valign="top">:</td><td><div>False</div></td></tr><tr><td style="font-weight:bold;vertical-align:top">is_pypy</td><td valign="top">:</td><td><div>False</div></td></tr><tr><td style="font-weight:bold;vertical-align:top">local_hosts</td><td valign="top">:</td><td><div><table><tr><td><div>::ffff:127.0.0.1</div></td></tr><tr><td><div>::1</div></td></tr><tr><td><div>Neocomp</div></td></tr><tr><td><div>192.168.1.111</div></td></tr><tr><td><div>fe80::c56:972a:9eb4:ae73%15</div></td></tr><tr><td><div>127.0.0.1</div></td></tr></table></div></td></tr><tr><td style="font-weight:bold;vertical-align:top">path_info</td><td valign="top">:</td><td><div>/news/default/index.json</div></td></tr><tr><td style="font-weight:bold;vertical-align:top">query_string</td><td valign="top">:</td><td><div></div></td></tr><tr><td style="font-weight:bold;vertical-align:top">remote_addr</td><td valign="top">:</td><td><div>127.0.0.1</div></td></tr><tr><td style="font-weight:bold;vertical-align:top">remote_port</td><td valign="top">:</td><td><div>56947</div></td></tr><tr><td style="font-weight:bold;vertical-align:top">request_method</td><td valign="top">:</td><td><div>GET</div></td></tr><tr><td style="font-weight:bold;vertical-align:top">request_uri</td><td valign="top">:</td><td><div>/news/default/index.json</div></td></tr><tr><td style="font-weight:bold;vertical-align:top">script_name</td><td valign="top">:</td><td><div></div></td></tr><tr><td style="font-weight:bold;vertical-align:top">server_name</td><td valign="top">:</td><td><div>Neocomp</div></td></tr><tr><td style="font-weight:bold;vertical-align:top">server_port</td><td valign="top">:</td><td><div>8000</div></td></tr><tr><td style="font-weight:bold;vertical-align:top">server_protocol</td><td valign="top">:</td><td><div>HTTP/1.1</div></td></tr><tr><td style="font-weight:bold;vertical-align:top">server_software</td><td valign="top">:</td><td><div>Rocket 1.2.6</div></td></tr><tr><td style="font-weight:bold;vertical-align:top">web2py_path</td><td valign="top">:</td><td><div>D:\\work\\web2py_src\\web2py</div></td></tr><tr><td style="font-weight:bold;vertical-align:top">web2py_version</td><td valign="top">:</td><td><div>2.5.1-stable+timestamp.2013.06.06.15.39.19</div></td></tr><tr><td style="font-weight:bold;vertical-align:top">wsgi_errors</td><td valign="top">:</td><td><div>&lt;open file &#x27;&lt;stderr&gt;&#x27;, mode &#x27;w&#x27; at 0x005F60D0&gt;</div></td></tr><tr><td style="font-weight:bold;vertical-align:top">wsgi_file_wrapper</td><td valign="top">:</td><td><div>&lt;class wsgiref.util.FileWrapper at 0x030B38B8&gt;</div></td></tr><tr><td style="font-weight:bold;vertical-align:top">wsgi_input</td><td valign="top">:</td><td><div>&lt;socket._fileobject object at 0x0BECB5B0&gt;</div></td></tr><tr><td style="font-weight:bold;vertical-align:top">wsgi_multiprocess</td><td valign="top">:</td><td><div>False</div></td></tr><tr><td style="font-weight:bold;vertical-align:top">wsgi_multithread</td><td valign="top">:</td><td><div>True</div></td></tr><tr><td style="font-weight:bold;vertical-align:top">wsgi_run_once</td><td valign="top">:</td><td><div>False</div></td></tr><tr><td style="font-weight:bold;vertical-align:top">wsgi_url_scheme</td><td valign="top">:</td><td><div>http</div></td></tr><tr><td style="font-weight:bold;vertical-align:top">wsgi_version</td><td valign="top">:</td><td><div><table><tr><td><div>1</div></td></tr><tr><td><div>0</div></td></tr></table></div></td></tr></table></div></td></tr><tr><td style="font-weight:bold;vertical-align:top">extension</td><td valign="top">:</td><td><div>json</div></td></tr><tr><td style="font-weight:bold;vertical-align:top">folder</td><td valign="top">:</td><td><div>D:\\work\\web2py_src\\web2py\\applications\\news\\</div></td></tr><tr><td style="font-weight:bold;vertical-align:top">function</td><td valign="top">:</td><td><div>index</div></td></tr><tr><td style="font-weight:bold;vertical-align:top">get_vars</td><td valign="top">:</td><td><div><table></table></div></td></tr><tr><td style="font-weight:bold;vertical-align:top">global_settings</td><td valign="top">:</td><td><div><table><tr><td style="font-weight:bold;vertical-align:top">app_folders</td><td valign="top">:</td><td><div>set([&#x27;D:\\\\work\\\\web2py_src\\\\web2py\\\\applications\\\\news\\\\&#x27;, &#x27;D:\\\\work\\\\web2py_src\\\\web2py\\\\applications\\\\welcome\\\\&#x27;, &#x27;D:\\\\work\\\\web2py_src\\\\web2py\\\\applications\\\\admin\\\\&#x27;])</div></td></tr><tr><td style="font-weight:bold;vertical-align:top">applications_parent</td><td valign="top">:</td><td><div>D:\\work\\web2py_src\\web2py</div></td></tr><tr><td style="font-weight:bold;vertical-align:top">cmd_args</td><td valign="top">:</td><td><div><table></table></div></td></tr><tr><td style="font-weight:bold;vertical-align:top">cmd_options</td><td valign="top">:</td><td><div>&lt;Values at 0x310b508: {&#x27;verbose&#x27;: False, &#x27;ip&#x27;: &#x27;127.0.0.1&#x27;, &#x27;with_scheduler&#x27;: False, &#x27;ips&#x27;: [&#x27;fe80::c56:972a:9eb4:ae73%15&#x27;, &#x27;192.168.1.111&#x27;], &#x27;shutdown_timeout&#x27;: 5, &#x27;taskbar&#x27;: False, &#x27;with_coverage&#x27;: False, &#x27;port&#x27;: 8000, &#x27;maxthreads&#x27;: None, &#x27;softcron&#x27;: False, &#x27;server_name&#x27;: &#x27;Neocomp&#x27;, &#x27;bpython&#x27;: False, &#x27;nogui&#x27;: False, &#x27;pid_filename&#x27;: &#x27;httpserver.pid&#x27;, &#x27;extcron&#x27;: False, &#x27;runcron&#x27;: False, &#x27;run_system_tests&#x27;: False, &#x27;test&#x27;: None, &#x27;folder&#x27;: &#x27;D:\\\\work\\\\web2py_src\\\\web2py&#x27;, &#x27;config&#x27;: &#x27;&#x27;, &#x27;import_models&#x27;: False, &#x27;winservice&#x27;: &#x27;&#x27;, &#x27;shell&#x27;: None, &#x27;run&#x27;: &#x27;&#x27;, &#x27;log_filename&#x27;: &#x27;httpserver.log&#x27;, &#x27;debuglevel&#x27;: 30, &#x27;args&#x27;: [&#x27;&#x27;], &#x27;socket_timeout&#x27;: 5, &#x27;ssl_ca_certificate&#x27;: None, &#x27;scheduler&#x27;: None, &#x27;profiler_filename&#x27;: None, &#x27;ssl_private_key&#x27;: &#x27;&#x27;, &#x27;scheduler_groups&#x27;: None, &#x27;password&#x27;: &#x27;&lt;ask&gt;&#x27;, &#x27;request_queue_size&#x27;: 5, &#x27;ssl_certificate&#x27;: &#x27;&#x27;, &#x27;cronjob&#x27;: False, &#x27;numthreads&#x27;: None, &#x27;quiet&#x27;: False, &#x27;interfaces&#x27;: None, &#x27;minthreads&#x27;: None, &#x27;timeout&#x27;: 10, &#x27;plain&#x27;: False, &#x27;nobanner&#x27;: False}&gt;</div></td></tr><tr><td style="font-weight:bold;vertical-align:top">db_sessions</td><td valign="top">:</td><td><div>set([])</div></td></tr><tr><td style="font-weight:bold;vertical-align:top">debugging</td><td valign="top">:</td><td><div>True</div></td></tr><tr><td style="font-weight:bold;vertical-align:top">gluon_parent</td><td valign="top">:</td><td><div>D:\\work\\web2py_src\\web2py</div></td></tr><tr><td style="font-weight:bold;vertical-align:top">is_jython</td><td valign="top">:</td><td><div>False</div></td></tr><tr><td style="font-weight:bold;vertical-align:top">is_pypy</td><td valign="top">:</td><td><div>False</div></td></tr><tr><td style="font-weight:bold;vertical-align:top">local_hosts</td><td valign="top">:</td><td><div><table><tr><td><div>::ffff:127.0.0.1</div></td></tr><tr><td><div>::1</div></td></tr><tr><td><div>Neocomp</div></td></tr><tr><td><div>192.168.1.111</div></td></tr><tr><td><div>fe80::c56:972a:9eb4:ae73%15</div></td></tr><tr><td><div>127.0.0.1</div></td></tr></table></div></td></tr><tr><td style="font-weight:bold;vertical-align:top">web2py_version</td><td valign="top">:</td><td><div>2.5.1-stable+timestamp.2013.06.06.15.39.19</div></td></tr></table></div></td></tr><tr><td style="font-weight:bold;vertical-align:top">is_https</td><td valign="top">:</td><td><div>False</div></td></tr><tr><td style="font-weight:bold;vertical-align:top">is_local</td><td valign="top">:</td><td><div>True</div></td></tr><tr><td style="font-weight:bold;vertical-align:top">is_restful</td><td valign="top">:</td><td><div>False</div></td></tr><tr><td style="font-weight:bold;vertical-align:top">now</td><td valign="top">:</td><td><div>datetime.datetime(2013, 6, 24, 20, 9, 36, 16000)</div></td></tr><tr><td style="font-weight:bold;vertical-align:top">post_vars</td><td valign="top">:</td><td><div><table></table></div></td></tr><tr><td style="font-weight:bold;vertical-align:top">raw_args</td><td valign="top">:</td><td><div></div></td></tr><tr><td style="font-weight:bold;vertical-align:top">raw_extension</td><td valign="top">:</td><td><div>json</div></td></tr><tr><td style="font-weight:bold;vertical-align:top">url</td><td valign="top">:</td><td><div>/news/default/index.json</div></td></tr><tr><td style="font-weight:bold;vertical-align:top">utcnow</td><td valign="top">:</td><td><div>datetime.datetime(2013, 6, 24, 16, 9, 36, 16000)</div></td></tr><tr><td style="font-weight:bold;vertical-align:top">uuid</td><td valign="top">:</td><td><div>news/127.0.0.1.2013-06-24.20-09-36.01a923a3-5a21-4079-8414-54211d61cb78</div></td></tr><tr><td style="font-weight:bold;vertical-align:top">vars</td><td valign="top">:</td><td><div><table></table></div></td></tr><tr><td style="font-weight:bold;vertical-align:top">wsgi</td><td valign="top">:</td><td><div><table><tr><td style="font-weight:bold;vertical-align:top">environ</td><td valign="top">:</td><td><div><table><tr><td style="font-weight:bold;vertical-align:top">HTTP_ACCEPT</td><td valign="top">:</td><td><div>text/html,application/xhtml+xml,application/xml;q=0.9,*/*;q=0.8</div></td></tr><tr><td style="font-weight:bold;vertical-align:top">HTTP_ACCEPT_ENCODING</td><td valign="top">:</td><td><div>gzip, deflate</div></td></tr><tr><td style="font-weight:bold;vertical-align:top">HTTP_ACCEPT_LANGUAGE</td><td valign="top">:</td><td><div>ru-RU,ru;q=0.8,en-US;q=0.5,en;q=0.3</div></td></tr><tr><td style="font-weight:bold;vertical-align:top">HTTP_CACHE_CONTROL</td><td valign="top">:</td><td><div>max-age=0</div></td></tr><tr><td style="font-weight:bold;vertical-align:top">HTTP_CONNECTION</td><td valign="top">:</td><td><div>keep-alive</div></td></tr><tr><td style="font-weight:bold;vertical-align:top">HTTP_COOKIE</td><td valign="top">:</td><td><div>session_id_welcome=127.0.0.1-8955e61f-7038-42e8-b420-e2f359783fdc; session_id_admin=127.0.0.1-339a5dde-2682-48d9-9caf-a58d44f9858a; session_id_news=127.0.0.1-18f5d805-0ac0-43dd-8116-c208695abdf6</div></td></tr><tr><td style="font-weight:bold;vertical-align:top">HTTP_HOST</td><td valign="top">:</td><td><div>127.0.0.1:8000</div></td></tr><tr><td style="font-weight:bold;vertical-align:top">HTTP_USER_AGENT</td><td valign="top">:</td><td><div>Mozilla/5.0 (Windows NT 6.1; WOW64; rv:21.0) Gecko/20100101 Firefox/21.0</div></td></tr><tr><td style="font-weight:bold;vertical-align:top">PATH_INFO</td><td valign="top">:</td><td><div>/news/default/index.json</div></td></tr><tr><td style="font-weight:bold;vertical-align:top">QUERY_STRING</td><td valign="top">:</td><td><div></div></td></tr><tr><td style="font-weight:bold;vertical-align:top">REMOTE_ADDR</td><td valign="top">:</td><td><div>127.0.0.1</div></td></tr><tr><td style="font-weight:bold;vertical-align:top">REMOTE_PORT</td><td valign="top">:</td><td><div>56947</div></td></tr><tr><td style="font-weight:bold;vertical-align:top">REQUEST_METHOD</td><td valign="top">:</td><td><div>GET</div></td></tr><tr><td style="font-weight:bold;vertical-align:top">REQUEST_URI</td><td valign="top">:</td><td><div>/news/default/index.json</div></td></tr><tr><td style="font-weight:bold;vertical-align:top">SCRIPT_NAME</td><td valign="top">:</td><td><div></div></td></tr><tr><td style="font-weight:bold;vertical-align:top">SERVER_NAME</td><td valign="top">:</td><td><div>Neocomp</div></td></tr><tr><td style="font-weight:bold;vertical-align:top">SERVER_PORT</td><td valign="top">:</td><td><div>8000</div></td></tr><tr><td style="font-weight:bold;vertical-align:top">SERVER_PROTOCOL</td><td valign="top">:</td><td><div>HTTP/1.1</div></td></tr><tr><td style="font-weight:bold;vertical-align:top">SERVER_SOFTWARE</td><td valign="top">:</td><td><div>Rocket 1.2.6</div></td></tr><tr><td style="font-weight:bold;vertical-align:top">wsgi.errors</td><td valign="top">:</td><td><div>&lt;open file &#x27;&lt;stderr&gt;&#x27;, mode &#x27;w&#x27; at 0x005F60D0&gt;</div></td></tr><tr><td style="font-weight:bold;vertical-align:top">wsgi.file_wrapper</td><td valign="top">:</td><td><div>&lt;class wsgiref.util.FileWrapper at 0x030B38B8&gt;</div></td></tr><tr><td style="font-weight:bold;vertical-align:top">wsgi.input</td><td valign="top">:</td><td><div>&lt;cStringIO.StringO object at 0x0BFA8480&gt;</div></td></tr><tr><td style="font-weight:bold;vertical-align:top">wsgi.multiprocess</td><td valign="top">:</td><td><div>False</div></td></tr><tr><td style="font-weight:bold;vertical-align:top">wsgi.multithread</td><td valign="top">:</td><td><div>True</div></td></tr><tr><td style="font-weight:bold;vertical-align:top">wsgi.run_once</td><td valign="top">:</td><td><div>False</div></td></tr><tr><td style="font-weight:bold;vertical-align:top">wsgi.url_scheme</td><td valign="top">:</td><td><div>http</div></td></tr><tr><td style="font-weight:bold;vertical-align:top">wsgi.version</td><td valign="top">:</td><td><div>1</div></td></tr></table></div></td></tr></table></div></td></tr></table></div>'
tRp68
sS'frames'
p69
(lp70
(dp71
S'file'
p72
S'D:\\work\\web2py_src\\web2py\\gluon\\restricted.py'
p73
sS'dump'
p74
(dp75
S'environment'
p76
S"{'A': <class 'gluon.html.A'>, 'ANY_OF': <class 'gluon.validators.ANY_OF'>, 'Auth': <class 'gluon.tools.Auth'>, 'B': <class 'gluon.html.B'>, 'BEAUTIFY': <class 'gluon.html.BEAUTIFY'>, 'BODY': <class 'gluon.html.BODY'>, 'BR': <class 'gluon.html.BR'>, 'BUTTON': <class 'gluon.html.BUTTON'>, 'CAT': <class 'gluon.html.CAT'>, 'CENTER': <class 'gluon.html.CENTER'>, ...}"
p77
sS'ccode'
p78
S'<code object <module> at 08FA74E8, file "D:\\work...lications\\news\\views\\default/index.json", line 1>'
p79
ssS'lnum'
p80
I212
sS'lines'
p81
(dp82
I207
S'    try:'
p83
sI208
S'        if isinstance(code, types.CodeType):'
p84
sI209
S'            ccode = code'
p85
sI210
S'        else:'
p86
sI211
S'            ccode = compile2(code, layer)'
p87
sI212
S'        exec ccode in environment'
p88
sI213
S'    except HTTP:'
p89
sI214
S'        raise'
p90
sI215
S'    except RestrictedError:'
p91
sI216
S'        # do not encapsulate (obfuscate) the original RestrictedError'
p92
ssS'call'
p93
S'(code="import json\\nresponse.write(\'\\\\r\\\\n\', escape=False)...se)\\n    pass\\nresponse.write(\'\\\\r\\\\n\', escape=False)", environment={\'A\': <class \'gluon.html.A\'>, \'ANY_OF\': <class \'gluon.validators.ANY_OF\'>, \'Auth\': <class \'gluon.tools.Auth\'>, \'B\': <class \'gluon.html.B\'>, \'BEAUTIFY\': <class \'gluon.html.BEAUTIFY\'>, \'BODY\': <class \'gluon.html.BODY\'>, \'BR\': <class \'gluon.html.BR\'>, \'BUTTON\': <class \'gluon.html.BUTTON\'>, \'CAT\': <class \'gluon.html.CAT\'>, \'CENTER\': <class \'gluon.html.CENTER\'>, ...}, layer=r\'D:\\work\\web2py_src\\web2py\\applications\\news\\views\\default/index.json\')'
p94
sS'func'
p95
S'restricted'
p96
sa(dp97
g72
S'D:\\work\\web2py_src\\web2py\\applications\\news\\views\\default\\index.json'
p98
sg74
(dp99
sg80
I7
sg81
(dp100
I1
S'{{import json}}'
p101
sI2
S'{{=json.dumps(categories.as_list())}}'
p102
sI3
S'{{for new in news:}}'
p103
sI4
S'\t{{=json.dumps(news[new].as_list(), encoding="CP1251")}}'
p104
sI5
S'{{pass}}'
p105
ssg93
S'()'
p106
sg95
S'<module>'
p107
sa(dp108
g72
S'c:\\python27\\lib\\json\\__init__.py'
p109
sg74
(dp110
S'obj'
p111
S"[{'anons': '\\xd0\\x93\\xd0\\xbe\\xd1\\x81\\xd1\\x83\\xd0\\xb4\\xd0\\xb0\\xd1\\x80\\xd1\\x81\\xd1\\x82\\xd0\\xb2\\xd0\\xb5\\xd0\\xbd\\xd0\\xbd\\xd1\\x8b\\xd0\\xb9 \\xd1\\x81\\xd0\\xb5\\xd0\\xba\\xd1\\x80\\xd0\\xb5\\xd1\\x82\\xd0\\xb0\\xd1\\x80\\xd1...\\xd0\\xb5\\xd0\\xbd\\xd0\\xb8\\xd0\\xb8 \\xd1\\x81\\xd0\\xb5\\xd0\\xba\\xd1\\x80\\xd0\\xb5\\xd1\\x82\\xd0\\xbd\\xd0\\xbe\\xd0\\xb9 \\xd0\\xb8\\xd0\\xbd\\xd1\\x84\\xd0\\xbe\\xd1\\x80\\xd0\\xbc\\xd0\\xb0\\xd1\\x86\\xd0\\xb8\\xd0\\xb8.', 'body': '\\xd0\\x93\\xd0\\xbe\\xd1\\x81\\xd1\\x83\\xd0\\xb4\\xd0\\xb0\\xd1\\x80\\xd1\\x81\\xd1\\x82\\xd0\\xb2\\xd0\\xb5\\xd0\\xbd\\xd0\\xbd\\xd1\\x8b\\xd0\\xb9 \\xd1\\x81\\xd0\\xb5\\xd0\\xba\\xd1\\x80\\xd0\\xb5\\xd1\\x82\\xd0\\xb0\\xd1\\x80\\xd1...\\xbb\\xd1\\x83\\xd1\\x87\\xd0\\xb5\\xd0\\xbd\\xd0\\xb8\\xd0\\xb8 \\xd1\\x83\\xd0\\xb1\\xd0\\xb5\\xd0\\xb6\\xd0\\xb8\\xd1\\x89\\xd0\\xb0 \\xd0\\xb2 \\xd0\\x98\\xd1\\x81\\xd0\\xbb\\xd0\\xb0\\xd0\\xbd\\xd0\\xb4\\xd0\\xb8\\xd0\\xb8.', 'id': 6L, 'id_category': 8L, 'id_user': 1L, 'image': 'news.image.902c489399211374.7069635f393363346438...06236643561626231663831376163643136302e6a7067.jpg', 'newsdate': '2013-06-24', 'title': '\\xd0\\xa1\\xd0\\xa8\\xd0\\x90 \\xd0\\xbf\\xd1\\x80\\xd0\\xb8\\xd0\\xb3\\xd1\\x80\\xd0\\xbe\\xd0\\xb7\\xd0\\xb8\\xd0\\xbb\\xd0\\xb8 \\xd0\\xa0\\xd0\\xbe\\xd1\\x81\\xd1\\x81\\xd0\\xb8\\xd0\\xb8 \\xd0\\xb8 \\xd0\\x9a\\xd0\\xb8...\\xd0\\xb0\\xd0\\xb7 \\xd0\\xb2\\xd1\\x8b\\xd0\\xb4\\xd0\\xb0\\xd1\\x82\\xd1\\x8c \\xd0\\xad\\xd0\\xb4\\xd0\\xb2\\xd0\\xb0\\xd1\\x80\\xd0\\xb4\\xd0\\xb0 \\xd0\\xa1\\xd0\\xbd\\xd0\\xbe\\xd1\\x83\\xd0\\xb4\\xd0\\xb5\\xd0\\xbd\\xd0\\xb0'}, {'anons': '\\xd0\\x9f\\xd1\\x80\\xd0\\xb5\\xd0\\xbc\\xd1\\x8c\\xd0\\xb5\\xd1\\x80-\\xd0\\xbc\\xd0\\xb8\\xd0\\xbd\\xd0\\xb8\\xd1\\x81\\xd1\\x82\\xd1\\x80 \\xd0\\xa0\\xd0\\xbe\\xd1\\x81\\xd1\\x81\\xd0\\xb8\\xd0\\xb8 \\xd0\\x94\\xd0\\xbc\\xd0...\\xb0\\xd1\\x82\\xd1\\x8c \\xd1\\x81\\xd0\\xbe\\xd0\\xbe\\xd0\\xb1\\xd1\\x89\\xd0\\xb5\\xd0\\xbd\\xd0\\xb8\\xd1\\x8f \\xd0\\xbf\\xd1\\x80\\xd0\\xb5\\xd1\\x81\\xd1\\x81-\\xd1\\x81\\xd0\\xbb\\xd1\\x83\\xd0\\xb6\\xd0\\xb1\\xd0\\xb5.', 'body': '\\xd0\\x92\\xd0\\xb8\\xd1\\x86\\xd0\\xb5-\\xd0\\xbf\\xd1\\x80\\xd0\\xb5\\xd0\\xbc\\xd1\\x8c\\xd0\\xb5\\xd1\\x80 \\xd0\\x94\\xd0\\xbc\\xd0\\xb8\\xd1\\x82\\xd1\\x80\\xd0\\xb8\\xd0\\xb9 \\xd0\\xa0\\xd0\\xbe\\xd0\\xb3\\xd0\\xbe\\xd0...\\xd0\\xb5\\xd1\\x80\\xd1\\x82\\xd0\\xb0 \\xd0\\xb2 \\xd0\\x9c\\xd0\\xbe\\xd1\\x81\\xd0\\xba\\xd0\\xb2\\xd0\\xb5, \\xc2\\xab\\xd0\\xb1\\xd1\\x8b\\xd0\\xb2\\xd1\\x88\\xd0\\xb5\\xd0\\xb9 \\xd0\\xb1...\\xc2\\xbb.', 'id': 7L, 'id_category': 8L, 'id_user': 1L, 'image': 'news.image.8d79ba6b833ce8a6.383537335f6269672e6a7067.jpg', 'newsdate': '2013-06-24', 'title': '\\xd0\\x92\\xd0\\xb8\\xd1\\x86\\xd0\\xb5-\\xd0\\xbf\\xd1\\x80\\xd0\\xb5\\xd0\\xbc\\xd1\\x8c\\xd0\\xb5\\xd1\\x80 \\xd0\\xa0\\xd0\\xbe\\xd0\\xb3\\xd0\\xbe\\xd0\\xb7\\xd0\\xb8\\xd0\\xbd \\xd1\\x80\\xd0\\xb5\\xd1\\x88\\xd0\\xb8\\xd0\\xbb \\xd1\\x81\\xd0\\xbd\\xd0\\xbe\\xd0\\xb2\\xd0\\xb0 \\xd0\\xb2\\xd0\\xb5\\xd1\\x81\\xd1\\x82\\xd0\\xb8 Twitter'}]"
p112
sS'sort_keys'
p113
S'False'
p114
sS'kw'
p115
g21
sS').encode'
p116
S'undefined'
p117
ssg80
I250
sg81
(dp118
I245
S'        cls = JSONEncoder'
p119
sI246
S'    return cls('
p120
sI247
S'        skipkeys=skipkeys, ensure_ascii=ensure_ascii,'
p121
sI248
S'        check_circular=check_circular, allow_nan=allow_nan, indent=indent,'
p122
sI249
S'        separators=separators, encoding=encoding, default=default,'
p123
sI250
S'        sort_keys=sort_keys, **kw).encode(obj)'
p124
sI251
S''
sI252
S''
sI253
S'_default_decoder = JSONDecoder(encoding=None, object_hook=None,'
p125
sI254
S'                               object_pairs_hook=None)'
p126
ssg93
S"(obj=[{'anons': '\\xd0\\x93\\xd0\\xbe\\xd1\\x81\\xd1\\x83\\xd0\\xb4\\xd0\\xb0\\xd1\\x80\\xd1\\x81\\xd1\\x82\\xd0\\xb2\\xd0\\xb5\\xd0\\xbd\\xd0\\xbd\\xd1\\x8b\\xd0\\xb9 \\xd1\\x81\\xd0\\xb5\\xd0\\xba\\xd1\\x80\\xd0\\xb5\\xd1\\x82\\xd0\\xb0\\xd1\\x80\\xd1...\\xd0\\xb5\\xd0\\xbd\\xd0\\xb8\\xd0\\xb8 \\xd1\\x81\\xd0\\xb5\\xd0\\xba\\xd1\\x80\\xd0\\xb5\\xd1\\x82\\xd0\\xbd\\xd0\\xbe\\xd0\\xb9 \\xd0\\xb8\\xd0\\xbd\\xd1\\x84\\xd0\\xbe\\xd1\\x80\\xd0\\xbc\\xd0\\xb0\\xd1\\x86\\xd0\\xb8\\xd0\\xb8.', 'body': '\\xd0\\x93\\xd0\\xbe\\xd1\\x81\\xd1\\x83\\xd0\\xb4\\xd0\\xb0\\xd1\\x80\\xd1\\x81\\xd1\\x82\\xd0\\xb2\\xd0\\xb5\\xd0\\xbd\\xd0\\xbd\\xd1\\x8b\\xd0\\xb9 \\xd1\\x81\\xd0\\xb5\\xd0\\xba\\xd1\\x80\\xd0\\xb5\\xd1\\x82\\xd0\\xb0\\xd1\\x80\\xd1...\\xbb\\xd1\\x83\\xd1\\x87\\xd0\\xb5\\xd0\\xbd\\xd0\\xb8\\xd0\\xb8 \\xd1\\x83\\xd0\\xb1\\xd0\\xb5\\xd0\\xb6\\xd0\\xb8\\xd1\\x89\\xd0\\xb0 \\xd0\\xb2 \\xd0\\x98\\xd1\\x81\\xd0\\xbb\\xd0\\xb0\\xd0\\xbd\\xd0\\xb4\\xd0\\xb8\\xd0\\xb8.', 'id': 6L, 'id_category': 8L, 'id_user': 1L, 'image': 'news.image.902c489399211374.7069635f393363346438...06236643561626231663831376163643136302e6a7067.jpg', 'newsdate': '2013-06-24', 'title': '\\xd0\\xa1\\xd0\\xa8\\xd0\\x90 \\xd0\\xbf\\xd1\\x80\\xd0\\xb8\\xd0\\xb3\\xd1\\x80\\xd0\\xbe\\xd0\\xb7\\xd0\\xb8\\xd0\\xbb\\xd0\\xb8 \\xd0\\xa0\\xd0\\xbe\\xd1\\x81\\xd1\\x81\\xd0\\xb8\\xd0\\xb8 \\xd0\\xb8 \\xd0\\x9a\\xd0\\xb8...\\xd0\\xb0\\xd0\\xb7 \\xd0\\xb2\\xd1\\x8b\\xd0\\xb4\\xd0\\xb0\\xd1\\x82\\xd1\\x8c \\xd0\\xad\\xd0\\xb4\\xd0\\xb2\\xd0\\xb0\\xd1\\x80\\xd0\\xb4\\xd0\\xb0 \\xd0\\xa1\\xd0\\xbd\\xd0\\xbe\\xd1\\x83\\xd0\\xb4\\xd0\\xb5\\xd0\\xbd\\xd0\\xb0'}, {'anons': '\\xd0\\x9f\\xd1\\x80\\xd0\\xb5\\xd0\\xbc\\xd1\\x8c\\xd0\\xb5\\xd1\\x80-\\xd0\\xbc\\xd0\\xb8\\xd0\\xbd\\xd0\\xb8\\xd1\\x81\\xd1\\x82\\xd1\\x80 \\xd0\\xa0\\xd0\\xbe\\xd1\\x81\\xd1\\x81\\xd0\\xb8\\xd0\\xb8 \\xd0\\x94\\xd0\\xbc\\xd0...\\xb0\\xd1\\x82\\xd1\\x8c \\xd1\\x81\\xd0\\xbe\\xd0\\xbe\\xd0\\xb1\\xd1\\x89\\xd0\\xb5\\xd0\\xbd\\xd0\\xb8\\xd1\\x8f \\xd0\\xbf\\xd1\\x80\\xd0\\xb5\\xd1\\x81\\xd1\\x81-\\xd1\\x81\\xd0\\xbb\\xd1\\x83\\xd0\\xb6\\xd0\\xb1\\xd0\\xb5.', 'body': '\\xd0\\x92\\xd0\\xb8\\xd1\\x86\\xd0\\xb5-\\xd0\\xbf\\xd1\\x80\\xd0\\xb5\\xd0\\xbc\\xd1\\x8c\\xd0\\xb5\\xd1\\x80 \\xd0\\x94\\xd0\\xbc\\xd0\\xb8\\xd1\\x82\\xd1\\x80\\xd0\\xb8\\xd0\\xb9 \\xd0\\xa0\\xd0\\xbe\\xd0\\xb3\\xd0\\xbe\\xd0...\\xd0\\xb5\\xd1\\x80\\xd1\\x82\\xd0\\xb0 \\xd0\\xb2 \\xd0\\x9c\\xd0\\xbe\\xd1\\x81\\xd0\\xba\\xd0\\xb2\\xd0\\xb5, \\xc2\\xab\\xd0\\xb1\\xd1\\x8b\\xd0\\xb2\\xd1\\x88\\xd0\\xb5\\xd0\\xb9 \\xd0\\xb1...\\xc2\\xbb.', 'id': 7L, 'id_category': 8L, 'id_user': 1L, 'image': 'news.image.8d79ba6b833ce8a6.383537335f6269672e6a7067.jpg', 'newsdate': '2013-06-24', 'title': '\\xd0\\x92\\xd0\\xb8\\xd1\\x86\\xd0\\xb5-\\xd0\\xbf\\xd1\\x80\\xd0\\xb5\\xd0\\xbc\\xd1\\x8c\\xd0\\xb5\\xd1\\x80 \\xd0\\xa0\\xd0\\xbe\\xd0\\xb3\\xd0\\xbe\\xd0\\xb7\\xd0\\xb8\\xd0\\xbd \\xd1\\x80\\xd0\\xb5\\xd1\\x88\\xd0\\xb8\\xd0\\xbb \\xd1\\x81\\xd0\\xbd\\xd0\\xbe\\xd0\\xb2\\xd0\\xb0 \\xd0\\xb2\\xd0\\xb5\\xd1\\x81\\xd1\\x82\\xd0\\xb8 Twitter'}], skipkeys=False, ensure_ascii=True, check_circular=True, allow_nan=True, cls=<class 'json.encoder.JSONEncoder'>, indent=None, separators=None, encoding='CP1251', default=None, sort_keys=False, **kw={})"
p127
sg95
S'dumps'
p128
sa(dp129
g72
S'c:\\python27\\lib\\json\\encoder.py'
p130
sg74
(dp131
S'self'
p132
S'<json.encoder.JSONEncoder object>'
p133
sS'o'
S"[{'anons': '\\xd0\\x93\\xd0\\xbe\\xd1\\x81\\xd1\\x83\\xd0\\xb4\\xd0\\xb0\\xd1\\x80\\xd1\\x81\\xd1\\x82\\xd0\\xb2\\xd0\\xb5\\xd0\\xbd\\xd0\\xbd\\xd1\\x8b\\xd0\\xb9 \\xd1\\x81\\xd0\\xb5\\xd0\\xba\\xd1\\x80\\xd0\\xb5\\xd1\\x82\\xd0\\xb0\\xd1\\x80\\xd1...\\xd0\\xb5\\xd0\\xbd\\xd0\\xb8\\xd0\\xb8 \\xd1\\x81\\xd0\\xb5\\xd0\\xba\\xd1\\x80\\xd0\\xb5\\xd1\\x82\\xd0\\xbd\\xd0\\xbe\\xd0\\xb9 \\xd0\\xb8\\xd0\\xbd\\xd1\\x84\\xd0\\xbe\\xd1\\x80\\xd0\\xbc\\xd0\\xb0\\xd1\\x86\\xd0\\xb8\\xd0\\xb8.', 'body': '\\xd0\\x93\\xd0\\xbe\\xd1\\x81\\xd1\\x83\\xd0\\xb4\\xd0\\xb0\\xd1\\x80\\xd1\\x81\\xd1\\x82\\xd0\\xb2\\xd0\\xb5\\xd0\\xbd\\xd0\\xbd\\xd1\\x8b\\xd0\\xb9 \\xd1\\x81\\xd0\\xb5\\xd0\\xba\\xd1\\x80\\xd0\\xb5\\xd1\\x82\\xd0\\xb0\\xd1\\x80\\xd1...\\xbb\\xd1\\x83\\xd1\\x87\\xd0\\xb5\\xd0\\xbd\\xd0\\xb8\\xd0\\xb8 \\xd1\\x83\\xd0\\xb1\\xd0\\xb5\\xd0\\xb6\\xd0\\xb8\\xd1\\x89\\xd0\\xb0 \\xd0\\xb2 \\xd0\\x98\\xd1\\x81\\xd0\\xbb\\xd0\\xb0\\xd0\\xbd\\xd0\\xb4\\xd0\\xb8\\xd0\\xb8.', 'id': 6L, 'id_category': 8L, 'id_user': 1L, 'image': 'news.image.902c489399211374.7069635f393363346438...06236643561626231663831376163643136302e6a7067.jpg', 'newsdate': '2013-06-24', 'title': '\\xd0\\xa1\\xd0\\xa8\\xd0\\x90 \\xd0\\xbf\\xd1\\x80\\xd0\\xb8\\xd0\\xb3\\xd1\\x80\\xd0\\xbe\\xd0\\xb7\\xd0\\xb8\\xd0\\xbb\\xd0\\xb8 \\xd0\\xa0\\xd0\\xbe\\xd1\\x81\\xd1\\x81\\xd0\\xb8\\xd0\\xb8 \\xd0\\xb8 \\xd0\\x9a\\xd0\\xb8...\\xd0\\xb0\\xd0\\xb7 \\xd0\\xb2\\xd1\\x8b\\xd0\\xb4\\xd0\\xb0\\xd1\\x82\\xd1\\x8c \\xd0\\xad\\xd0\\xb4\\xd0\\xb2\\xd0\\xb0\\xd1\\x80\\xd0\\xb4\\xd0\\xb0 \\xd0\\xa1\\xd0\\xbd\\xd0\\xbe\\xd1\\x83\\xd0\\xb4\\xd0\\xb5\\xd0\\xbd\\xd0\\xb0'}, {'anons': '\\xd0\\x9f\\xd1\\x80\\xd0\\xb5\\xd0\\xbc\\xd1\\x8c\\xd0\\xb5\\xd1\\x80-\\xd0\\xbc\\xd0\\xb8\\xd0\\xbd\\xd0\\xb8\\xd1\\x81\\xd1\\x82\\xd1\\x80 \\xd0\\xa0\\xd0\\xbe\\xd1\\x81\\xd1\\x81\\xd0\\xb8\\xd0\\xb8 \\xd0\\x94\\xd0\\xbc\\xd0...\\xb0\\xd1\\x82\\xd1\\x8c \\xd1\\x81\\xd0\\xbe\\xd0\\xbe\\xd0\\xb1\\xd1\\x89\\xd0\\xb5\\xd0\\xbd\\xd0\\xb8\\xd1\\x8f \\xd0\\xbf\\xd1\\x80\\xd0\\xb5\\xd1\\x81\\xd1\\x81-\\xd1\\x81\\xd0\\xbb\\xd1\\x83\\xd0\\xb6\\xd0\\xb1\\xd0\\xb5.', 'body': '\\xd0\\x92\\xd0\\xb8\\xd1\\x86\\xd0\\xb5-\\xd0\\xbf\\xd1\\x80\\xd0\\xb5\\xd0\\xbc\\xd1\\x8c\\xd0\\xb5\\xd1\\x80 \\xd0\\x94\\xd0\\xbc\\xd0\\xb8\\xd1\\x82\\xd1\\x80\\xd0\\xb8\\xd0\\xb9 \\xd0\\xa0\\xd0\\xbe\\xd0\\xb3\\xd0\\xbe\\xd0...\\xd0\\xb5\\xd1\\x80\\xd1\\x82\\xd0\\xb0 \\xd0\\xb2 \\xd0\\x9c\\xd0\\xbe\\xd1\\x81\\xd0\\xba\\xd0\\xb2\\xd0\\xb5, \\xc2\\xab\\xd0\\xb1\\xd1\\x8b\\xd0\\xb2\\xd1\\x88\\xd0\\xb5\\xd0\\xb9 \\xd0\\xb1...\\xc2\\xbb.', 'id': 7L, 'id_category': 8L, 'id_user': 1L, 'image': 'news.image.8d79ba6b833ce8a6.383537335f6269672e6a7067.jpg', 'newsdate': '2013-06-24', 'title': '\\xd0\\x92\\xd0\\xb8\\xd1\\x86\\xd0\\xb5-\\xd0\\xbf\\xd1\\x80\\xd0\\xb5\\xd0\\xbc\\xd1\\x8c\\xd0\\xb5\\xd1\\x80 \\xd0\\xa0\\xd0\\xbe\\xd0\\xb3\\xd0\\xbe\\xd0\\xb7\\xd0\\xb8\\xd0\\xbd \\xd1\\x80\\xd0\\xb5\\xd1\\x88\\xd0\\xb8\\xd0\\xbb \\xd1\\x81\\xd0\\xbd\\xd0\\xbe\\xd0\\xb2\\xd0\\xb0 \\xd0\\xb2\\xd0\\xb5\\xd1\\x81\\xd1\\x82\\xd0\\xb8 Twitter'}]"
p134
sS'self.iterencode'
p135
S'<bound method JSONEncoder.iterencode of <json.encoder.JSONEncoder object>>'
p136
sS'_one_shot'
p137
g117
sS'chunks'
p138
g117
sS'builtinTrue'
p139
S'True'
p140
ssg80
I207
sg81
(dp141
I202
S'            else:'
p142
sI203
S'                return encode_basestring(o)'
p143
sI204
S"        # This doesn't pass the iterator directly to ''.join() because the"
p144
sI205
S"        # exceptions aren't as detailed.  The list call should be roughly"
p145
sI206
S"        # equivalent to the PySequence_Fast that ''.join() would do."
p146
sI207
S'        chunks = self.iterencode(o, _one_shot=True)'
p147
sI208
S'        if not isinstance(chunks, (list, tuple)):'
p148
sI209
S'            chunks = list(chunks)'
p149
sI210
S"        return ''.join(chunks)"
p150
sI211
S''
ssg93
S"(self=<json.encoder.JSONEncoder object>, o=[{'anons': '\\xd0\\x93\\xd0\\xbe\\xd1\\x81\\xd1\\x83\\xd0\\xb4\\xd0\\xb0\\xd1\\x80\\xd1\\x81\\xd1\\x82\\xd0\\xb2\\xd0\\xb5\\xd0\\xbd\\xd0\\xbd\\xd1\\x8b\\xd0\\xb9 \\xd1\\x81\\xd0\\xb5\\xd0\\xba\\xd1\\x80\\xd0\\xb5\\xd1\\x82\\xd0\\xb0\\xd1\\x80\\xd1...\\xd0\\xb5\\xd0\\xbd\\xd0\\xb8\\xd0\\xb8 \\xd1\\x81\\xd0\\xb5\\xd0\\xba\\xd1\\x80\\xd0\\xb5\\xd1\\x82\\xd0\\xbd\\xd0\\xbe\\xd0\\xb9 \\xd0\\xb8\\xd0\\xbd\\xd1\\x84\\xd0\\xbe\\xd1\\x80\\xd0\\xbc\\xd0\\xb0\\xd1\\x86\\xd0\\xb8\\xd0\\xb8.', 'body': '\\xd0\\x93\\xd0\\xbe\\xd1\\x81\\xd1\\x83\\xd0\\xb4\\xd0\\xb0\\xd1\\x80\\xd1\\x81\\xd1\\x82\\xd0\\xb2\\xd0\\xb5\\xd0\\xbd\\xd0\\xbd\\xd1\\x8b\\xd0\\xb9 \\xd1\\x81\\xd0\\xb5\\xd0\\xba\\xd1\\x80\\xd0\\xb5\\xd1\\x82\\xd0\\xb0\\xd1\\x80\\xd1...\\xbb\\xd1\\x83\\xd1\\x87\\xd0\\xb5\\xd0\\xbd\\xd0\\xb8\\xd0\\xb8 \\xd1\\x83\\xd0\\xb1\\xd0\\xb5\\xd0\\xb6\\xd0\\xb8\\xd1\\x89\\xd0\\xb0 \\xd0\\xb2 \\xd0\\x98\\xd1\\x81\\xd0\\xbb\\xd0\\xb0\\xd0\\xbd\\xd0\\xb4\\xd0\\xb8\\xd0\\xb8.', 'id': 6L, 'id_category': 8L, 'id_user': 1L, 'image': 'news.image.902c489399211374.7069635f393363346438...06236643561626231663831376163643136302e6a7067.jpg', 'newsdate': '2013-06-24', 'title': '\\xd0\\xa1\\xd0\\xa8\\xd0\\x90 \\xd0\\xbf\\xd1\\x80\\xd0\\xb8\\xd0\\xb3\\xd1\\x80\\xd0\\xbe\\xd0\\xb7\\xd0\\xb8\\xd0\\xbb\\xd0\\xb8 \\xd0\\xa0\\xd0\\xbe\\xd1\\x81\\xd1\\x81\\xd0\\xb8\\xd0\\xb8 \\xd0\\xb8 \\xd0\\x9a\\xd0\\xb8...\\xd0\\xb0\\xd0\\xb7 \\xd0\\xb2\\xd1\\x8b\\xd0\\xb4\\xd0\\xb0\\xd1\\x82\\xd1\\x8c \\xd0\\xad\\xd0\\xb4\\xd0\\xb2\\xd0\\xb0\\xd1\\x80\\xd0\\xb4\\xd0\\xb0 \\xd0\\xa1\\xd0\\xbd\\xd0\\xbe\\xd1\\x83\\xd0\\xb4\\xd0\\xb5\\xd0\\xbd\\xd0\\xb0'}, {'anons': '\\xd0\\x9f\\xd1\\x80\\xd0\\xb5\\xd0\\xbc\\xd1\\x8c\\xd0\\xb5\\xd1\\x80-\\xd0\\xbc\\xd0\\xb8\\xd0\\xbd\\xd0\\xb8\\xd1\\x81\\xd1\\x82\\xd1\\x80 \\xd0\\xa0\\xd0\\xbe\\xd1\\x81\\xd1\\x81\\xd0\\xb8\\xd0\\xb8 \\xd0\\x94\\xd0\\xbc\\xd0...\\xb0\\xd1\\x82\\xd1\\x8c \\xd1\\x81\\xd0\\xbe\\xd0\\xbe\\xd0\\xb1\\xd1\\x89\\xd0\\xb5\\xd0\\xbd\\xd0\\xb8\\xd1\\x8f \\xd0\\xbf\\xd1\\x80\\xd0\\xb5\\xd1\\x81\\xd1\\x81-\\xd1\\x81\\xd0\\xbb\\xd1\\x83\\xd0\\xb6\\xd0\\xb1\\xd0\\xb5.', 'body': '\\xd0\\x92\\xd0\\xb8\\xd1\\x86\\xd0\\xb5-\\xd0\\xbf\\xd1\\x80\\xd0\\xb5\\xd0\\xbc\\xd1\\x8c\\xd0\\xb5\\xd1\\x80 \\xd0\\x94\\xd0\\xbc\\xd0\\xb8\\xd1\\x82\\xd1\\x80\\xd0\\xb8\\xd0\\xb9 \\xd0\\xa0\\xd0\\xbe\\xd0\\xb3\\xd0\\xbe\\xd0...\\xd0\\xb5\\xd1\\x80\\xd1\\x82\\xd0\\xb0 \\xd0\\xb2 \\xd0\\x9c\\xd0\\xbe\\xd1\\x81\\xd0\\xba\\xd0\\xb2\\xd0\\xb5, \\xc2\\xab\\xd0\\xb1\\xd1\\x8b\\xd0\\xb2\\xd1\\x88\\xd0\\xb5\\xd0\\xb9 \\xd0\\xb1...\\xc2\\xbb.', 'id': 7L, 'id_category': 8L, 'id_user': 1L, 'image': 'news.image.8d79ba6b833ce8a6.383537335f6269672e6a7067.jpg', 'newsdate': '2013-06-24', 'title': '\\xd0\\x92\\xd0\\xb8\\xd1\\x86\\xd0\\xb5-\\xd0\\xbf\\xd1\\x80\\xd0\\xb5\\xd0\\xbc\\xd1\\x8c\\xd0\\xb5\\xd1\\x80 \\xd0\\xa0\\xd0\\xbe\\xd0\\xb3\\xd0\\xbe\\xd0\\xb7\\xd0\\xb8\\xd0\\xbd \\xd1\\x80\\xd0\\xb5\\xd1\\x88\\xd0\\xb8\\xd0\\xbb \\xd1\\x81\\xd0\\xbd\\xd0\\xbe\\xd0\\xb2\\xd0\\xb0 \\xd0\\xb2\\xd0\\xb5\\xd1\\x81\\xd1\\x82\\xd0\\xb8 Twitter'}])"
p151
sg95
S'encode'
p152
sa(dp153
g72
S'c:\\python27\\lib\\json\\encoder.py'
p154
sg74
(dp155
S'_iterencode'
p156
S'<_json.Encoder object>'
p157
sS'o'
S"[{'anons': '\\xd0\\x93\\xd0\\xbe\\xd1\\x81\\xd1\\x83\\xd0\\xb4\\xd0\\xb0\\xd1\\x80\\xd1\\x81\\xd1\\x82\\xd0\\xb2\\xd0\\xb5\\xd0\\xbd\\xd0\\xbd\\xd1\\x8b\\xd0\\xb9 \\xd1\\x81\\xd0\\xb5\\xd0\\xba\\xd1\\x80\\xd0\\xb5\\xd1\\x82\\xd0\\xb0\\xd1\\x80\\xd1...\\xd0\\xb5\\xd0\\xbd\\xd0\\xb8\\xd0\\xb8 \\xd1\\x81\\xd0\\xb5\\xd0\\xba\\xd1\\x80\\xd0\\xb5\\xd1\\x82\\xd0\\xbd\\xd0\\xbe\\xd0\\xb9 \\xd0\\xb8\\xd0\\xbd\\xd1\\x84\\xd0\\xbe\\xd1\\x80\\xd0\\xbc\\xd0\\xb0\\xd1\\x86\\xd0\\xb8\\xd0\\xb8.', 'body': '\\xd0\\x93\\xd0\\xbe\\xd1\\x81\\xd1\\x83\\xd0\\xb4\\xd0\\xb0\\xd1\\x80\\xd1\\x81\\xd1\\x82\\xd0\\xb2\\xd0\\xb5\\xd0\\xbd\\xd0\\xbd\\xd1\\x8b\\xd0\\xb9 \\xd1\\x81\\xd0\\xb5\\xd0\\xba\\xd1\\x80\\xd0\\xb5\\xd1\\x82\\xd0\\xb0\\xd1\\x80\\xd1...\\xbb\\xd1\\x83\\xd1\\x87\\xd0\\xb5\\xd0\\xbd\\xd0\\xb8\\xd0\\xb8 \\xd1\\x83\\xd0\\xb1\\xd0\\xb5\\xd0\\xb6\\xd0\\xb8\\xd1\\x89\\xd0\\xb0 \\xd0\\xb2 \\xd0\\x98\\xd1\\x81\\xd0\\xbb\\xd0\\xb0\\xd0\\xbd\\xd0\\xb4\\xd0\\xb8\\xd0\\xb8.', 'id': 6L, 'id_category': 8L, 'id_user': 1L, 'image': 'news.image.902c489399211374.7069635f393363346438...06236643561626231663831376163643136302e6a7067.jpg', 'newsdate': '2013-06-24', 'title': '\\xd0\\xa1\\xd0\\xa8\\xd0\\x90 \\xd0\\xbf\\xd1\\x80\\xd0\\xb8\\xd0\\xb3\\xd1\\x80\\xd0\\xbe\\xd0\\xb7\\xd0\\xb8\\xd0\\xbb\\xd0\\xb8 \\xd0\\xa0\\xd0\\xbe\\xd1\\x81\\xd1\\x81\\xd0\\xb8\\xd0\\xb8 \\xd0\\xb8 \\xd0\\x9a\\xd0\\xb8...\\xd0\\xb0\\xd0\\xb7 \\xd0\\xb2\\xd1\\x8b\\xd0\\xb4\\xd0\\xb0\\xd1\\x82\\xd1\\x8c \\xd0\\xad\\xd0\\xb4\\xd0\\xb2\\xd0\\xb0\\xd1\\x80\\xd0\\xb4\\xd0\\xb0 \\xd0\\xa1\\xd0\\xbd\\xd0\\xbe\\xd1\\x83\\xd0\\xb4\\xd0\\xb5\\xd0\\xbd\\xd0\\xb0'}, {'anons': '\\xd0\\x9f\\xd1\\x80\\xd0\\xb5\\xd0\\xbc\\xd1\\x8c\\xd0\\xb5\\xd1\\x80-\\xd0\\xbc\\xd0\\xb8\\xd0\\xbd\\xd0\\xb8\\xd1\\x81\\xd1\\x82\\xd1\\x80 \\xd0\\xa0\\xd0\\xbe\\xd1\\x81\\xd1\\x81\\xd0\\xb8\\xd0\\xb8 \\xd0\\x94\\xd0\\xbc\\xd0...\\xb0\\xd1\\x82\\xd1\\x8c \\xd1\\x81\\xd0\\xbe\\xd0\\xbe\\xd0\\xb1\\xd1\\x89\\xd0\\xb5\\xd0\\xbd\\xd0\\xb8\\xd1\\x8f \\xd0\\xbf\\xd1\\x80\\xd0\\xb5\\xd1\\x81\\xd1\\x81-\\xd1\\x81\\xd0\\xbb\\xd1\\x83\\xd0\\xb6\\xd0\\xb1\\xd0\\xb5.', 'body': '\\xd0\\x92\\xd0\\xb8\\xd1\\x86\\xd0\\xb5-\\xd0\\xbf\\xd1\\x80\\xd0\\xb5\\xd0\\xbc\\xd1\\x8c\\xd0\\xb5\\xd1\\x80 \\xd0\\x94\\xd0\\xbc\\xd0\\xb8\\xd1\\x82\\xd1\\x80\\xd0\\xb8\\xd0\\xb9 \\xd0\\xa0\\xd0\\xbe\\xd0\\xb3\\xd0\\xbe\\xd0...\\xd0\\xb5\\xd1\\x80\\xd1\\x82\\xd0\\xb0 \\xd0\\xb2 \\xd0\\x9c\\xd0\\xbe\\xd1\\x81\\xd0\\xba\\xd0\\xb2\\xd0\\xb5, \\xc2\\xab\\xd0\\xb1\\xd1\\x8b\\xd0\\xb2\\xd1\\x88\\xd0\\xb5\\xd0\\xb9 \\xd0\\xb1...\\xc2\\xbb.', 'id': 7L, 'id_category': 8L, 'id_user': 1L, 'image': 'news.image.8d79ba6b833ce8a6.383537335f6269672e6a7067.jpg', 'newsdate': '2013-06-24', 'title': '\\xd0\\x92\\xd0\\xb8\\xd1\\x86\\xd0\\xb5-\\xd0\\xbf\\xd1\\x80\\xd0\\xb5\\xd0\\xbc\\xd1\\x8c\\xd0\\xb5\\xd1\\x80 \\xd0\\xa0\\xd0\\xbe\\xd0\\xb3\\xd0\\xbe\\xd0\\xb7\\xd0\\xb8\\xd0\\xbd \\xd1\\x80\\xd0\\xb5\\xd1\\x88\\xd0\\xb8\\xd0\\xbb \\xd1\\x81\\xd0\\xbd\\xd0\\xbe\\xd0\\xb2\\xd0\\xb0 \\xd0\\xb2\\xd0\\xb5\\xd1\\x81\\xd1\\x82\\xd0\\xb8 Twitter'}]"
p158
ssg80
I270
sg81
(dp159
I265
S'        else:'
p160
sI266
S'            _iterencode = _make_iterencode('
p161
sI267
S'                markers, self.default, _encoder, self.indent, floatstr,'
p162
sI268
S'                self.key_separator, self.item_separator, self.sort_keys,'
p163
sI269
S'                self.skipkeys, _one_shot)'
p164
sI270
S'        return _iterencode(o, 0)'
p165
sI271
S''
sI272
S'def _make_iterencode(markers, _default, _encoder, _indent, _floatstr,'
p166
sI273
S'        _key_separator, _item_separator, _sort_keys, _skipkeys, _one_shot,'
p167
sI274
S'        ## HACK: hand-optimized bytecode; turn globals into locals'
p168
ssg93
S"(self=<json.encoder.JSONEncoder object>, o=[{'anons': '\\xd0\\x93\\xd0\\xbe\\xd1\\x81\\xd1\\x83\\xd0\\xb4\\xd0\\xb0\\xd1\\x80\\xd1\\x81\\xd1\\x82\\xd0\\xb2\\xd0\\xb5\\xd0\\xbd\\xd0\\xbd\\xd1\\x8b\\xd0\\xb9 \\xd1\\x81\\xd0\\xb5\\xd0\\xba\\xd1\\x80\\xd0\\xb5\\xd1\\x82\\xd0\\xb0\\xd1\\x80\\xd1...\\xd0\\xb5\\xd0\\xbd\\xd0\\xb8\\xd0\\xb8 \\xd1\\x81\\xd0\\xb5\\xd0\\xba\\xd1\\x80\\xd0\\xb5\\xd1\\x82\\xd0\\xbd\\xd0\\xbe\\xd0\\xb9 \\xd0\\xb8\\xd0\\xbd\\xd1\\x84\\xd0\\xbe\\xd1\\x80\\xd0\\xbc\\xd0\\xb0\\xd1\\x86\\xd0\\xb8\\xd0\\xb8.', 'body': '\\xd0\\x93\\xd0\\xbe\\xd1\\x81\\xd1\\x83\\xd0\\xb4\\xd0\\xb0\\xd1\\x80\\xd1\\x81\\xd1\\x82\\xd0\\xb2\\xd0\\xb5\\xd0\\xbd\\xd0\\xbd\\xd1\\x8b\\xd0\\xb9 \\xd1\\x81\\xd0\\xb5\\xd0\\xba\\xd1\\x80\\xd0\\xb5\\xd1\\x82\\xd0\\xb0\\xd1\\x80\\xd1...\\xbb\\xd1\\x83\\xd1\\x87\\xd0\\xb5\\xd0\\xbd\\xd0\\xb8\\xd0\\xb8 \\xd1\\x83\\xd0\\xb1\\xd0\\xb5\\xd0\\xb6\\xd0\\xb8\\xd1\\x89\\xd0\\xb0 \\xd0\\xb2 \\xd0\\x98\\xd1\\x81\\xd0\\xbb\\xd0\\xb0\\xd0\\xbd\\xd0\\xb4\\xd0\\xb8\\xd0\\xb8.', 'id': 6L, 'id_category': 8L, 'id_user': 1L, 'image': 'news.image.902c489399211374.7069635f393363346438...06236643561626231663831376163643136302e6a7067.jpg', 'newsdate': '2013-06-24', 'title': '\\xd0\\xa1\\xd0\\xa8\\xd0\\x90 \\xd0\\xbf\\xd1\\x80\\xd0\\xb8\\xd0\\xb3\\xd1\\x80\\xd0\\xbe\\xd0\\xb7\\xd0\\xb8\\xd0\\xbb\\xd0\\xb8 \\xd0\\xa0\\xd0\\xbe\\xd1\\x81\\xd1\\x81\\xd0\\xb8\\xd0\\xb8 \\xd0\\xb8 \\xd0\\x9a\\xd0\\xb8...\\xd0\\xb0\\xd0\\xb7 \\xd0\\xb2\\xd1\\x8b\\xd0\\xb4\\xd0\\xb0\\xd1\\x82\\xd1\\x8c \\xd0\\xad\\xd0\\xb4\\xd0\\xb2\\xd0\\xb0\\xd1\\x80\\xd0\\xb4\\xd0\\xb0 \\xd0\\xa1\\xd0\\xbd\\xd0\\xbe\\xd1\\x83\\xd0\\xb4\\xd0\\xb5\\xd0\\xbd\\xd0\\xb0'}, {'anons': '\\xd0\\x9f\\xd1\\x80\\xd0\\xb5\\xd0\\xbc\\xd1\\x8c\\xd0\\xb5\\xd1\\x80-\\xd0\\xbc\\xd0\\xb8\\xd0\\xbd\\xd0\\xb8\\xd1\\x81\\xd1\\x82\\xd1\\x80 \\xd0\\xa0\\xd0\\xbe\\xd1\\x81\\xd1\\x81\\xd0\\xb8\\xd0\\xb8 \\xd0\\x94\\xd0\\xbc\\xd0...\\xb0\\xd1\\x82\\xd1\\x8c \\xd1\\x81\\xd0\\xbe\\xd0\\xbe\\xd0\\xb1\\xd1\\x89\\xd0\\xb5\\xd0\\xbd\\xd0\\xb8\\xd1\\x8f \\xd0\\xbf\\xd1\\x80\\xd0\\xb5\\xd1\\x81\\xd1\\x81-\\xd1\\x81\\xd0\\xbb\\xd1\\x83\\xd0\\xb6\\xd0\\xb1\\xd0\\xb5.', 'body': '\\xd0\\x92\\xd0\\xb8\\xd1\\x86\\xd0\\xb5-\\xd0\\xbf\\xd1\\x80\\xd0\\xb5\\xd0\\xbc\\xd1\\x8c\\xd0\\xb5\\xd1\\x80 \\xd0\\x94\\xd0\\xbc\\xd0\\xb8\\xd1\\x82\\xd1\\x80\\xd0\\xb8\\xd0\\xb9 \\xd0\\xa0\\xd0\\xbe\\xd0\\xb3\\xd0\\xbe\\xd0...\\xd0\\xb5\\xd1\\x80\\xd1\\x82\\xd0\\xb0 \\xd0\\xb2 \\xd0\\x9c\\xd0\\xbe\\xd1\\x81\\xd0\\xba\\xd0\\xb2\\xd0\\xb5, \\xc2\\xab\\xd0\\xb1\\xd1\\x8b\\xd0\\xb2\\xd1\\x88\\xd0\\xb5\\xd0\\xb9 \\xd0\\xb1...\\xc2\\xbb.', 'id': 7L, 'id_category': 8L, 'id_user': 1L, 'image': 'news.image.8d79ba6b833ce8a6.383537335f6269672e6a7067.jpg', 'newsdate': '2013-06-24', 'title': '\\xd0\\x92\\xd0\\xb8\\xd1\\x86\\xd0\\xb5-\\xd0\\xbf\\xd1\\x80\\xd0\\xb5\\xd0\\xbc\\xd1\\x8c\\xd0\\xb5\\xd1\\x80 \\xd0\\xa0\\xd0\\xbe\\xd0\\xb3\\xd0\\xbe\\xd0\\xb7\\xd0\\xb8\\xd0\\xbd \\xd1\\x80\\xd0\\xb5\\xd1\\x88\\xd0\\xb8\\xd0\\xbb \\xd1\\x81\\xd0\\xbd\\xd0\\xbe\\xd0\\xb2\\xd0\\xb0 \\xd0\\xb2\\xd0\\xb5\\xd1\\x81\\xd1\\x82\\xd0\\xb8 Twitter'}], _one_shot=True)"
p169
sg95
S'iterencode'
p170
sa(dp171
g72
S'c:\\python27\\lib\\json\\encoder.py'
p172
sg74
(dp173
S'o.decode'
p174
S'<built-in method decode of str object>'
p175
sS'o'
S"'\\xd0\\x93\\xd0\\xbe\\xd1\\x81\\xd1\\x83\\xd0\\xb4\\xd0\\xb0\\xd1\\x80\\xd1\\x81\\xd1\\x82\\xd0\\xb2\\xd0\\xb5\\xd0\\xbd\\xd0\\xbd\\xd1\\x8b\\xd0\\xb9 \\xd1\\x81\\xd0\\xb5\\xd0\\xba\\xd1\\x80\\xd0\\xb5\\xd1\\x82\\xd0\\xb0\\xd1\\x80\\xd1...\\xbb\\xd1\\x83\\xd1\\x87\\xd0\\xb5\\xd0\\xbd\\xd0\\xb8\\xd0\\xb8 \\xd1\\x83\\xd0\\xb1\\xd0\\xb5\\xd0\\xb6\\xd0\\xb8\\xd1\\x89\\xd0\\xb0 \\xd0\\xb2 \\xd0\\x98\\xd1\\x81\\xd0\\xbb\\xd0\\xb0\\xd0\\xbd\\xd0\\xb4\\xd0\\xb8\\xd0\\xb8.'"
p176
sS'_encoding'
p177
S"'CP1251'"
p178
ssg80
I233
sg81
(dp179
I228
S'        else:'
p180
sI229
S'            _encoder = encode_basestring'
p181
sI230
S"        if self.encoding != 'utf-8':"
p182
sI231
S'            def _encoder(o, _orig_encoder=_encoder, _encoding=self.encoding):'
p183
sI232
S'                if isinstance(o, str):'
p184
sI233
S'                    o = o.decode(_encoding)'
p185
sI234
S'                return _orig_encoder(o)'
p186
sI235
S''
sI236
S'        def floatstr(o, allow_nan=self.allow_nan,'
p187
sI237
S'                _repr=FLOAT_REPR, _inf=INFINITY, _neginf=-INFINITY):'
p188
ssg93
S"(o='\\xd0\\x93\\xd0\\xbe\\xd1\\x81\\xd1\\x83\\xd0\\xb4\\xd0\\xb0\\xd1\\x80\\xd1\\x81\\xd1\\x82\\xd0\\xb2\\xd0\\xb5\\xd0\\xbd\\xd0\\xbd\\xd1\\x8b\\xd0\\xb9 \\xd1\\x81\\xd0\\xb5\\xd0\\xba\\xd1\\x80\\xd0\\xb5\\xd1\\x82\\xd0\\xb0\\xd1\\x80\\xd1...\\xbb\\xd1\\x83\\xd1\\x87\\xd0\\xb5\\xd0\\xbd\\xd0\\xb8\\xd0\\xb8 \\xd1\\x83\\xd0\\xb1\\xd0\\xb5\\xd0\\xb6\\xd0\\xb8\\xd1\\x89\\xd0\\xb0 \\xd0\\xb2 \\xd0\\x98\\xd1\\x81\\xd0\\xbb\\xd0\\xb0\\xd0\\xbd\\xd0\\xb4\\xd0\\xb8\\xd0\\xb8.', _orig_encoder=<built-in function encode_basestring_ascii>, _encoding='CP1251')"
p189
sg95
S'_encoder'
p190
sa(dp191
g72
S'c:\\python27\\lib\\encodings\\cp1251.py'
p192
sg74
(dp193
S'codecs.charmap_decode'
p194
S'<built-in function charmap_decode>'
p195
sS'input'
p196
S"'\\xd0\\x93\\xd0\\xbe\\xd1\\x81\\xd1\\x83\\xd0\\xb4\\xd0\\xb0\\xd1\\x80\\xd1\\x81\\xd1\\x82\\xd0\\xb2\\xd0\\xb5\\xd0\\xbd\\xd0\\xbd\\xd1\\x8b\\xd0\\xb9 \\xd1\\x81\\xd0\\xb5\\xd0\\xba\\xd1\\x80\\xd0\\xb5\\xd1\\x82\\xd0\\xb0\\xd1\\x80\\xd1...\\xbb\\xd1\\x83\\xd1\\x87\\xd0\\xb5\\xd0\\xbd\\xd0\\xb8\\xd0\\xb8 \\xd1\\x83\\xd0\\xb1\\xd0\\xb5\\xd0\\xb6\\xd0\\xb8\\xd1\\x89\\xd0\\xb0 \\xd0\\xb2 \\xd0\\x98\\xd1\\x81\\xd0\\xbb\\xd0\\xb0\\xd0\\xbd\\xd0\\xb4\\xd0\\xb8\\xd0\\xb8.'"
p197
sS'global codecs'
p198
S"<module 'codecs' from 'c:\\python27\\lib\\codecs.pyc'>"
p199
sS'global decoding_table'
p200
S"u'\\x00\\x01\\x02\\x03\\x04\\x05\\x06\\x07\\x08\\t\\n\\x0b\\x...\\u0448\\u0449\\u044a\\u044b\\u044c\\u044d\\u044e\\u044f'"
p201
sS'errors'
p202
S"'strict'"
p203
ssg80
I15
sg81
(dp204
I10
S''
sI11
S"    def encode(self,input,errors='strict'):"
p205
sI12
S'        return codecs.charmap_encode(input,errors,encoding_table)'
p206
sI13
S''
sI14
S"    def decode(self,input,errors='strict'):"
p207
sI15
S'        return codecs.charmap_decode(input,errors,decoding_table)'
p208
sI16
S''
sI17
S'class IncrementalEncoder(codecs.IncrementalEncoder):'
p209
sI18
S'    def encode(self, input, final=False):'
p210
sI19
S'        return codecs.charmap_encode(input,self.errors,encoding_table)[0]'
p211
ssg93
S"(self=<encodings.cp1251.Codec instance>, input='\\xd0\\x93\\xd0\\xbe\\xd1\\x81\\xd1\\x83\\xd0\\xb4\\xd0\\xb0\\xd1\\x80\\xd1\\x81\\xd1\\x82\\xd0\\xb2\\xd0\\xb5\\xd0\\xbd\\xd0\\xbd\\xd1\\x8b\\xd0\\xb9 \\xd1\\x81\\xd0\\xb5\\xd0\\xba\\xd1\\x80\\xd0\\xb5\\xd1\\x82\\xd0\\xb0\\xd1\\x80\\xd1...\\xbb\\xd1\\x83\\xd1\\x87\\xd0\\xb5\\xd0\\xbd\\xd0\\xb8\\xd0\\xb8 \\xd1\\x83\\xd0\\xb1\\xd0\\xb5\\xd0\\xb6\\xd0\\xb8\\xd1\\x89\\xd0\\xb0 \\xd0\\xb2 \\xd0\\x98\\xd1\\x81\\xd0\\xbb\\xd0\\xb0\\xd0\\xbd\\xd0\\xb4\\xd0\\xb8\\xd0\\xb8.', errors='strict')"
p212
sg95
S'decode'
p213
sasS'pyver'
p214
S'Python 2.7.5: c:\\python27\\python.exe (prefix: c:\\python27)'
p215
sS'session'
p216
g67
(S's\r\t\x00\x00<div><table><tr><td style="font-weight:bold;vertical-align:top">auth</td><td valign="top">:</td><td><div><table><tr><td style="font-weight:bold;vertical-align:top">expiration</td><td valign="top">:</td><td><div>3600</div></td></tr><tr><td style="font-weight:bold;vertical-align:top">hmac_key</td><td valign="top">:</td><td><div>10267843-df97-495b-8e6b-b569c94255c4</div></td></tr><tr><td style="font-weight:bold;vertical-align:top">last_visit</td><td valign="top">:</td><td><div>datetime.datetime(2013, 6, 24, 20, 9, 3, 873000)</div></td></tr><tr><td style="font-weight:bold;vertical-align:top">remember</td><td valign="top">:</td><td><div>False</div></td></tr><tr><td style="font-weight:bold;vertical-align:top">user</td><td valign="top">:</td><td><div><table><tr><td style="font-weight:bold;vertical-align:top">email</td><td valign="top">:</td><td><div>msgoloborodov@gmail.com</div></td></tr><tr><td style="font-weight:bold;vertical-align:top">first_name</td><td valign="top">:</td><td><div>\xd0\x9c\xd0\xb8\xd1\x85\xd0\xb0\xd0\xb8\xd0\xbb</div></td></tr><tr><td style="font-weight:bold;vertical-align:top">id</td><td valign="top">:</td><td><div>1L</div></td></tr><tr><td style="font-weight:bold;vertical-align:top">last_name</td><td valign="top">:</td><td><div>\xd0\x93\xd0\xbe\xd0\xbb\xd0\xbe\xd0\xb1\xd0\xbe\xd1\x80\xd0\xbe\xd0\xb4\xd0\xbe\xd0\xb2</div></td></tr><tr><td style="font-weight:bold;vertical-align:top">registration_id</td><td valign="top">:</td><td><div>None</div></td></tr><tr><td style="font-weight:bold;vertical-align:top">registration_key</td><td valign="top">:</td><td><div>None</div></td></tr><tr><td style="font-weight:bold;vertical-align:top">reset_password_key</td><td valign="top">:</td><td><div>None</div></td></tr></table></div></td></tr><tr><td style="font-weight:bold;vertical-align:top">user_groups</td><td valign="top">:</td><td><div><table><tr><td style="font-weight:bold;vertical-align:top">1</td><td valign="top">:</td><td><div>user_1</div></td></tr></table></div></td></tr></table></div></td></tr><tr><td style="font-weight:bold;vertical-align:top">flash</td><td valign="top">:</td><td><div>None</div></td></tr><tr><td style="font-weight:bold;vertical-align:top">last_orderby</td><td valign="top">:</td><td><div>None</div></td></tr><tr><td style="font-weight:bold;vertical-align:top">last_query</td><td valign="top">:</td><td><div>db.auth_user.id&gt;0</div></td></tr></table></div>'
tRp217
sS'etype'
p218
S"<type 'exceptions.UnicodeDecodeError'>"
p219
sS'date'
p220
S'Mon Jun 24 20:09:36 2013'
p221
sS'response'
p222
g67
(S's+\x19\x00\x00<div><table><tr><td style="font-weight:bold;vertical-align:top">body</td><td valign="top">:</td><td><div>&lt;cStringIO.StringO object at 0x0BFA8F20&gt;</div></td></tr><tr><td style="font-weight:bold;vertical-align:top">cookies</td><td valign="top">:</td><td><div><table><tr><td style="font-weight:bold;vertical-align:top">session_id_news</td><td valign="top">:</td><td><div>127.0.0.1-18f5d805-0ac0-43dd-8116-c208695abdf6<table><tr><td style="font-weight:bold;vertical-align:top">comment</td><td valign="top">:</td><td><div></div></td></tr><tr><td style="font-weight:bold;vertical-align:top">domain</td><td valign="top">:</td><td><div></div></td></tr><tr><td style="font-weight:bold;vertical-align:top">expires</td><td valign="top">:</td><td><div></div></td></tr><tr><td style="font-weight:bold;vertical-align:top">httponly</td><td valign="top">:</td><td><div></div></td></tr><tr><td style="font-weight:bold;vertical-align:top">max-age</td><td valign="top">:</td><td><div></div></td></tr><tr><td style="font-weight:bold;vertical-align:top">path</td><td valign="top">:</td><td><div>/</div></td></tr><tr><td style="font-weight:bold;vertical-align:top">secure</td><td valign="top">:</td><td><div></div></td></tr><tr><td style="font-weight:bold;vertical-align:top">version</td><td valign="top">:</td><td><div></div></td></tr></table></div></td></tr></table></div></td></tr><tr><td style="font-weight:bold;vertical-align:top">delimiters</td><td valign="top">:</td><td><div><table><tr><td><div>{{</div></td></tr><tr><td><div>}}</div></td></tr></table></div></td></tr><tr><td style="font-weight:bold;vertical-align:top">files</td><td valign="top">:</td><td><div><table></table></div></td></tr><tr><td style="font-weight:bold;vertical-align:top">flash</td><td valign="top">:</td><td><div></div></td></tr><tr><td style="font-weight:bold;vertical-align:top">generic_patterns</td><td valign="top">:</td><td><div><table></table></div></td></tr><tr><td style="font-weight:bold;vertical-align:top">google_analytics_id</td><td valign="top">:</td><td><div>None</div></td></tr><tr><td style="font-weight:bold;vertical-align:top">headers</td><td valign="top">:</td><td><div><table><tr><td style="font-weight:bold;vertical-align:top">X-Powered-By</td><td valign="top">:</td><td><div>web2py</div></td></tr></table></div></td></tr><tr><td style="font-weight:bold;vertical-align:top">menu</td><td valign="top">:</td><td><div><table><tr><td><div><table><tr><td><div>\xd0\x9d\xd0\xbe\xd0\xb2\xd0\xbe\xd1\x81\xd1\x82\xd0\xb8 \xd0\xbf\xd0\xbe \xd0\xba\xd0\xb0\xd1\x82\xd0\xb5\xd0\xb3\xd0\xbe\xd1\x80\xd0\xb8\xd1\x8f\xd0\xbc</div></td></tr><tr><td><div>False</div></td></tr><tr><td><div>/news/default/index.json</div></td></tr><tr><td><div><table></table></div></td></tr></table></div></td></tr><tr><td><div><table><tr><td><div>\xd0\x92\xd1\x81\xd0\xb5 \xd0\xbd\xd0\xbe\xd0\xb2\xd0\xbe\xd1\x81\xd1\x82\xd0\xb8</div></td></tr><tr><td><div>False</div></td></tr><tr><td><div>/news/default/show_all.json</div></td></tr><tr><td><div><table></table></div></td></tr></table></div></td></tr><tr><td><div><table><tr><td><div><span class="highlighted">\xd0\x90\xd0\xb4\xd0\xbc\xd0\xb8\xd0\xbd\xd0\xb8\xd1\x81\xd1\x82\xd1\x80\xd0\xb8\xd1\x80\xd0\xbe\xd0\xb2\xd0\xb0\xd0\xbd\xd0\xb8\xd0\xb5</span></div></td></tr><tr><td><div>False</div></td></tr><tr><td><div></div></td></tr><tr><td><div><table><tr><td><div><table><tr><td><div>\xd0\x94\xd0\xbe\xd0\xb1\xd0\xb0\xd0\xb2\xd0\xb8\xd1\x82\xd1\x8c \xd0\xba\xd0\xb0\xd1\x82\xd0\xb5\xd0\xb3\xd0\xbe\xd1\x80\xd0\xb8\xd1\x8e</div></td></tr><tr><td><div>False</div></td></tr><tr><td><div>/news/default/category_add.json</div></td></tr></table></div></td></tr><tr><td><div><table><tr><td><div>\xd0\x94\xd0\xbe\xd0\xb1\xd0\xb0\xd0\xb2\xd0\xb8\xd1\x82\xd1\x8c \xd0\xbd\xd0\xbe\xd0\xb2\xd0\xbe\xd1\x81\xd1\x82\xd1\x8c</div></td></tr><tr><td><div>False</div></td></tr><tr><td><div>/news/default/add.json</div></td></tr></table></div></td></tr></table></div></td></tr></table></div></td></tr></table></div></td></tr><tr><td style="font-weight:bold;vertical-align:top">meta</td><td valign="top">:</td><td><div><table><tr><td style="font-weight:bold;vertical-align:top">author</td><td valign="top">:</td><td><div>Your Name &lt;you@example.com&gt;</div></td></tr><tr><td style="font-weight:bold;vertical-align:top">description</td><td valign="top">:</td><td><div>a cool new app</div></td></tr><tr><td style="font-weight:bold;vertical-align:top">generator</td><td valign="top">:</td><td><div>Web2py Web Framework</div></td></tr><tr><td style="font-weight:bold;vertical-align:top">keywords</td><td valign="top">:</td><td><div>web2py, python, framework</div></td></tr></table></div></td></tr><tr><td style="font-weight:bold;vertical-align:top">models_to_run</td><td valign="top">:</td><td><div><table><tr><td><div>^\\w+\\.py$</div></td></tr><tr><td><div>^default/\\w+\\.py$</div></td></tr><tr><td><div>^default/index/\\w+\\.py$</div></td></tr></table></div></td></tr><tr><td style="font-weight:bold;vertical-align:top">postprocessing</td><td valign="top">:</td><td><div><table></table></div></td></tr><tr><td style="font-weight:bold;vertical-align:top">session_cookie_expires</td><td valign="top">:</td><td><div>None</div></td></tr><tr><td style="font-weight:bold;vertical-align:top">session_data_name</td><td valign="top">:</td><td><div>session_data_news</div></td></tr><tr><td style="font-weight:bold;vertical-align:top">session_file</td><td valign="top">:</td><td><div>&lt;open file &#x27;D:\\\\work\\\\web2py_src\\\\web2py\\\\applications\\\\news\\\\sessions\\\\127.0.0.1-18f5d805-0ac0-43dd-8116-c208695abdf6&#x27;, mode &#x27;rb+&#x27; at 0x096269C0&gt;</div></td></tr><tr><td style="font-weight:bold;vertical-align:top">session_filename</td><td valign="top">:</td><td><div>D:\\work\\web2py_src\\web2py\\applications\\news\\sessions\\127.0.0.1-18f5d805-0ac0-43dd-8116-c208695abdf6</div></td></tr><tr><td style="font-weight:bold;vertical-align:top">session_id</td><td valign="top">:</td><td><div>127.0.0.1-18f5d805-0ac0-43dd-8116-c208695abdf6</div></td></tr><tr><td style="font-weight:bold;vertical-align:top">session_id_name</td><td valign="top">:</td><td><div>session_id_news</div></td></tr><tr><td style="font-weight:bold;vertical-align:top">session_locked</td><td valign="top">:</td><td><div>True</div></td></tr><tr><td style="font-weight:bold;vertical-align:top">session_new</td><td valign="top">:</td><td><div>False</div></td></tr><tr><td style="font-weight:bold;vertical-align:top">session_storage_type</td><td valign="top">:</td><td><div>file</div></td></tr><tr><td style="font-weight:bold;vertical-align:top">status</td><td valign="top">:</td><td><div>200</div></td></tr><tr><td style="font-weight:bold;vertical-align:top">title</td><td valign="top">:</td><td><div>\xd0\x9d\xd0\xbe\xd0\xb2\xd0\xbe\xd1\x81\xd1\x82\xd0\xb8</div></td></tr><tr><td style="font-weight:bold;vertical-align:top">view</td><td valign="top">:</td><td><div>default/index.json</div></td></tr></table></div>'
tRp223
sS'locals'
p224
(dp225
S'input'
p226
S"'\\xd0\\x93\\xd0\\xbe\\xd1\\x81\\xd1\\x83\\xd0\\xb4\\xd0\\xb0\\xd1\\x80\\xd1\\x81\\xd1\\x82\\xd0\\xb2\\xd0\\xb5\\xd0\\xbd\\xd0\\xbd\\xd1\\x8b\\xd0\\xb9 \\xd1\\x81\\xd0\\xb5\\xd0\\xba\\xd1\\x80\\xd0\\xb5\\xd1\\x82\\xd0\\xb0\\xd1\\x80\\xd1...\\xbb\\xd1\\x83\\xd1\\x87\\xd0\\xb5\\xd0\\xbd\\xd0\\xb8\\xd0\\xb8 \\xd1\\x83\\xd0\\xb1\\xd0\\xb5\\xd0\\xb6\\xd0\\xb8\\xd1\\x89\\xd0\\xb0 \\xd0\\xb2 \\xd0\\x98\\xd1\\x81\\xd0\\xbb\\xd0\\xb0\\xd0\\xbd\\xd0\\xb4\\xd0\\xb8\\xd0\\xb8.'"
p227
sS'self'
p228
S'<encodings.cp1251.Codec instance>'
p229
sS'errors'
p230
S"'strict'"
p231
sssS'traceback'
p232
S'Traceback (most recent call last):\n  File "D:\\work\\web2py_src\\web2py\\gluon\\restricted.py", line 212, in restricted\n    exec ccode in environment\n  File "D:\\work\\web2py_src\\web2py\\applications\\news\\views\\default/index.json", line 7, in <module>\n  File "c:\\python27\\lib\\json\\__init__.py", line 250, in dumps\n    sort_keys=sort_keys, **kw).encode(obj)\n  File "c:\\python27\\lib\\json\\encoder.py", line 207, in encode\n    chunks = self.iterencode(o, _one_shot=True)\n  File "c:\\python27\\lib\\json\\encoder.py", line 270, in iterencode\n    return _iterencode(o, 0)\n  File "c:\\python27\\lib\\json\\encoder.py", line 233, in _encoder\n    o = o.decode(_encoding)\n  File "c:\\python27\\lib\\encodings\\cp1251.py", line 15, in decode\n    return codecs.charmap_decode(input,errors,decoding_table)\nUnicodeDecodeError: \'charmap\' codec can\'t decode byte 0x98 in position 3342: character maps to <undefined>\n'
p233
s.