(dp1
S'output'
p2
S"<class 'cx_Oracle.IntegrityError'> ORA-02292: integrity constraint (TEST.F_CATEGORY_ID) violated - child record found\n"
p3
sS'layer'
p4
S'D:\\work\\web2py_src\\web2py\\applications\\news\\controllers/default.py'
p5
sS'code'
p6
S'# -*- coding: utf-8 -*-\n# this file is released under public domain and you can use without limitations\n\n#########################################################################\n## This is a sample controller\n## - index is the default action of any application\n## - user is required for authentication and authorization\n## - download is for downloading files uploaded in the db (does streaming)\n## - call exposes all registered services (none by default)\n#########################################################################\n\n\ndef index():\n    """\n    example action using the internationalization operator T and flash\n    rendered by views/default/index.html or views/generic.html\n\n    if you need a simple wiki simple replace the two lines below with:\n    return auth.wiki()\n    """\n    count = db.news.id.count()\n    categories = db().select(db.category.ALL,count,\n                           left=db.news.on(db.news.id_category==db.category.id),\n                           groupby=(db.category.id,db.category.title),\n                           orderby=db.category.title)\n    \n    news = db().select(db.news.ALL)\n    \n    return dict(news=news, categories=categories,count=count)\n\n@auth.requires_login()\ndef add():\n    form = SQLFORM(db.news)\n    if form.process().accepted:\n        response.flash = \'\xd0\x9d\xd0\xbe\xd0\xb2\xd0\xbe\xd1\x81\xd1\x82\xd1\x8c \xd0\xb4\xd0\xbe\xd0\xb1\xd0\xb0\xd0\xb2\xd0\xbb\xd0\xb5\xd0\xbd\xd0\xb0\'\n    elif form.errors:\n       response.flash = \'\xd0\x9e\xd1\x88\xd0\xb8\xd0\xb1\xd0\xba\xd0\xb8\'\n    return dict(form=form)\n\n@auth.requires_login()\ndef edit():\n    record = db.news(request.args(0)) or redirect(URL(\'index\'))\n    form = SQLFORM(db.news, record, \n                   deletable = True,\n                   upload=URL(\'download\'))\n    if form.process().accepted:\n        response.flash = \'\xd0\x9d\xd0\xbe\xd0\xb2\xd0\xbe\xd1\x81\xd1\x82\xd1\x8c \xd1\x81\xd0\xbe\xd1\x85\xd1\x80\xd0\xb0\xd0\xbd\xd0\xb5\xd0\xbd\xd0\xb0\'\n    elif form.errors:\n       response.flash = \'\xd0\x9e\xd1\x88\xd0\xb8\xd0\xb1\xd0\xba\xd0\xb8\'\n    return dict(form=form)\n    \ndef category_add():\n    form = SQLFORM(db.category)\n    if form.process().accepted:\n        response.flash = \'\xd0\x9a\xd0\xb0\xd1\x82\xd0\xb5\xd0\xb3\xd0\xbe\xd1\x80\xd0\xb8\xd1\x8f \xd0\xb4\xd0\xbe\xd0\xb1\xd0\xb0\xd0\xb2\xd0\xbb\xd0\xb5\xd0\xbd\xd0\xb0\'\n    elif form.errors:\n       response.flash = \'\xd0\x9e\xd1\x88\xd0\xb8\xd0\xb1\xd0\xba\xd0\xb8\'\n    return dict(form=form)\n    \ndef category_edit():\n    record = db.category(request.args(0)) or redirect(URL(\'index\'))\n    form = SQLFORM(db.category, record, \n                   deletable = True)\n    if form.process().accepted:\n        response.flash = \'\xd0\x9a\xd0\xb0\xd1\x82\xd0\xb5\xd0\xb3\xd0\xbe\xd1\x80\xd0\xb8\xd1\x8f \xd1\x81\xd0\xbe\xd1\x85\xd1\x80\xd0\xb0\xd0\xbd\xd0\xb5\xd0\xbd\xd0\xb0\'\n    elif form.errors:\n       response.flash = \'\xd0\x9e\xd1\x88\xd0\xb8\xd0\xb1\xd0\xba\xd0\xb8\'\n    return dict(form=form)    \n    \ndef download():\n    return response.download(request, db)\n\ndef user():\n    """\n    exposes:\n    http://..../[app]/default/user/login\n    http://..../[app]/default/user/logout\n    http://..../[app]/default/user/register\n    http://..../[app]/default/user/profile\n    http://..../[app]/default/user/retrieve_password\n    http://..../[app]/default/user/change_password\n    http://..../[app]/default/user/manage_users (requires membership in \n    use @auth.requires_login()\n        @auth.requires_membership(\'group name\')\n        @auth.requires_permission(\'read\',\'table name\',record_id)\n    to decorate functions that need access control\n    """\n    return dict(form=auth())\n\n@cache.action()\ndef download():\n    """\n    allows downloading of uploaded files\n    http://..../[app]/default/download/[filename]\n    """\n    return response.download(request, db)\n\n\ndef call():\n    """\n    exposes services. for example:\n    http://..../[app]/default/call/jsonrpc\n    decorate with @services.jsonrpc the functions to expose\n    supports xml, json, xmlrpc, jsonrpc, amfrpc, rss, csv\n    """\n    return service()\n\n\n@auth.requires_signature()\ndef data():\n    """\n    http://..../[app]/default/data/tables\n    http://..../[app]/default/data/create/[table]\n    http://..../[app]/default/data/read/[table]/[id]\n    http://..../[app]/default/data/update/[table]/[id]\n    http://..../[app]/default/data/delete/[table]/[id]\n    http://..../[app]/default/data/select/[table]\n    http://..../[app]/default/data/search/[table]\n    but URLs must be signed, i.e. linked with\n      A(\'table\',_href=URL(\'data/tables\',user_signature=True))\n    or with the signed load operator\n      LOAD(\'default\',\'data.load\',args=\'tables\',ajax=True,user_signature=True)\n    """\n    return dict(form=crud())\n\nresponse._vars=response._caller(category_edit)\n'
p7
sS'snapshot'
p8
(dp9
S'exception'
p10
(dp11
S'__module__'
p12
S"'cx_Oracle'"
p13
sS'__getslice__'
p14
S"<method-wrapper '__getslice__' of IntegrityError object>"
p15
sS'__str__'
p16
S"<method-wrapper '__str__' of IntegrityError object>"
p17
sS'__reduce__'
p18
S'<built-in method __reduce__ of IntegrityError object>'
p19
sS'__dict__'
p20
S'{}'
p21
sS'__sizeof__'
p22
S'<built-in method __sizeof__ of IntegrityError object>'
p23
sS'__weakref__'
p24
S'None'
p25
sS'__init__'
p26
S"<method-wrapper '__init__' of IntegrityError object>"
p27
sS'__setattr__'
p28
S"<method-wrapper '__setattr__' of IntegrityError object>"
p29
sS'__reduce_ex__'
p30
S'<built-in method __reduce_ex__ of IntegrityError object>'
p31
sS'__new__'
p32
S'<built-in method __new__ of type object>'
p33
sS'__format__'
p34
S'<built-in method __format__ of IntegrityError object>'
p35
sS'__class__'
p36
S"<class 'cx_Oracle.IntegrityError'>"
p37
sS'__doc__'
p38
S'None'
p39
sS'__getitem__'
p40
S"<method-wrapper '__getitem__' of IntegrityError object>"
p41
sS'__setstate__'
p42
S'<built-in method __setstate__ of IntegrityError object>'
p43
sS'__getattribute__'
p44
S"<method-wrapper '__getattribute__' of IntegrityError object>"
p45
sS'args'
p46
S'(<cx_Oracle._Error object>,)'
p47
sS'__subclasshook__'
p48
S'<built-in method __subclasshook__ of type object>'
p49
sS'__unicode__'
p50
S'<built-in method __unicode__ of IntegrityError object>'
p51
sS'__delattr__'
p52
S"<method-wrapper '__delattr__' of IntegrityError object>"
p53
sS'__repr__'
p54
S"<method-wrapper '__repr__' of IntegrityError object>"
p55
sS'__hash__'
p56
S"<method-wrapper '__hash__' of IntegrityError object>"
p57
ssS'evalue'
p58
S'ORA-02292: integrity constraint (TEST.F_CATEGORY_ID) violated - child record found\n'
p59
sS'request'
p60
cgluon.html
XML_unpickle
p61
(S's\xb3\\\x00\x00<div><table><tr><td style="font-weight:bold;vertical-align:top">ajax</td><td valign="top">:</td><td><div>False</div></td></tr><tr><td style="font-weight:bold;vertical-align:top">application</td><td valign="top">:</td><td><div>news</div></td></tr><tr><td style="font-weight:bold;vertical-align:top">args</td><td valign="top">:</td><td><div><table><tr><td><div>9</div></td></tr></table></div></td></tr><tr><td style="font-weight:bold;vertical-align:top">body</td><td valign="top">:</td><td><div>&lt;open file &#x27;&lt;fdopen&gt;&#x27;, mode &#x27;w+b&#x27; at 0x06672338&gt;</div></td></tr><tr><td style="font-weight:bold;vertical-align:top">cid</td><td valign="top">:</td><td><div>None</div></td></tr><tr><td style="font-weight:bold;vertical-align:top">client</td><td valign="top">:</td><td><div>127.0.0.1</div></td></tr><tr><td style="font-weight:bold;vertical-align:top">controller</td><td valign="top">:</td><td><div>default</div></td></tr><tr><td style="font-weight:bold;vertical-align:top">cookies</td><td valign="top">:</td><td><div><table><tr><td style="font-weight:bold;vertical-align:top">session_id_admin</td><td valign="top">:</td><td><div>127.0.0.1-339a5dde-2682-48d9-9caf-a58d44f9858a<table><tr><td style="font-weight:bold;vertical-align:top">comment</td><td valign="top">:</td><td><div></div></td></tr><tr><td style="font-weight:bold;vertical-align:top">domain</td><td valign="top">:</td><td><div></div></td></tr><tr><td style="font-weight:bold;vertical-align:top">expires</td><td valign="top">:</td><td><div></div></td></tr><tr><td style="font-weight:bold;vertical-align:top">httponly</td><td valign="top">:</td><td><div></div></td></tr><tr><td style="font-weight:bold;vertical-align:top">max-age</td><td valign="top">:</td><td><div></div></td></tr><tr><td style="font-weight:bold;vertical-align:top">path</td><td valign="top">:</td><td><div></div></td></tr><tr><td style="font-weight:bold;vertical-align:top">secure</td><td valign="top">:</td><td><div></div></td></tr><tr><td style="font-weight:bold;vertical-align:top">version</td><td valign="top">:</td><td><div></div></td></tr></table></div></td></tr><tr><td style="font-weight:bold;vertical-align:top">session_id_news</td><td valign="top">:</td><td><div>127.0.0.1-18f5d805-0ac0-43dd-8116-c208695abdf6<table><tr><td style="font-weight:bold;vertical-align:top">comment</td><td valign="top">:</td><td><div></div></td></tr><tr><td style="font-weight:bold;vertical-align:top">domain</td><td valign="top">:</td><td><div></div></td></tr><tr><td style="font-weight:bold;vertical-align:top">expires</td><td valign="top">:</td><td><div></div></td></tr><tr><td style="font-weight:bold;vertical-align:top">httponly</td><td valign="top">:</td><td><div></div></td></tr><tr><td style="font-weight:bold;vertical-align:top">max-age</td><td valign="top">:</td><td><div></div></td></tr><tr><td style="font-weight:bold;vertical-align:top">path</td><td valign="top">:</td><td><div></div></td></tr><tr><td style="font-weight:bold;vertical-align:top">secure</td><td valign="top">:</td><td><div></div></td></tr><tr><td style="font-weight:bold;vertical-align:top">version</td><td valign="top">:</td><td><div></div></td></tr></table></div></td></tr><tr><td style="font-weight:bold;vertical-align:top">session_id_welcome</td><td valign="top">:</td><td><div>127.0.0.1-8955e61f-7038-42e8-b420-e2f359783fdc<table><tr><td style="font-weight:bold;vertical-align:top">comment</td><td valign="top">:</td><td><div></div></td></tr><tr><td style="font-weight:bold;vertical-align:top">domain</td><td valign="top">:</td><td><div></div></td></tr><tr><td style="font-weight:bold;vertical-align:top">expires</td><td valign="top">:</td><td><div></div></td></tr><tr><td style="font-weight:bold;vertical-align:top">httponly</td><td valign="top">:</td><td><div></div></td></tr><tr><td style="font-weight:bold;vertical-align:top">max-age</td><td valign="top">:</td><td><div></div></td></tr><tr><td style="font-weight:bold;vertical-align:top">path</td><td valign="top">:</td><td><div></div></td></tr><tr><td style="font-weight:bold;vertical-align:top">secure</td><td valign="top">:</td><td><div></div></td></tr><tr><td style="font-weight:bold;vertical-align:top">version</td><td valign="top">:</td><td><div></div></td></tr></table></div></td></tr></table></div></td></tr><tr><td style="font-weight:bold;vertical-align:top">env</td><td valign="top">:</td><td><div><table><tr><td style="font-weight:bold;vertical-align:top">app_folders</td><td valign="top">:</td><td><div>set([&#x27;D:\\\\work\\\\web2py_src\\\\web2py\\\\applications\\\\news\\\\&#x27;, &#x27;D:\\\\work\\\\web2py_src\\\\web2py\\\\applications\\\\admin\\\\&#x27;])</div></td></tr><tr><td style="font-weight:bold;vertical-align:top">applications_parent</td><td valign="top">:</td><td><div>D:\\work\\web2py_src\\web2py</div></td></tr><tr><td style="font-weight:bold;vertical-align:top">cmd_args</td><td valign="top">:</td><td><div><table><tr><td><div>8000</div></td></tr></table></div></td></tr><tr><td style="font-weight:bold;vertical-align:top">cmd_options</td><td valign="top">:</td><td><div>&lt;Values at 0x33ca508: {&#x27;verbose&#x27;: False, &#x27;ip&#x27;: &#x27;127.0.0.1&#x27;, &#x27;with_scheduler&#x27;: False, &#x27;ips&#x27;: [&#x27;fe80::c56:972a:9eb4:ae73%15&#x27;, &#x27;192.168.1.111&#x27;], &#x27;shutdown_timeout&#x27;: 5, &#x27;taskbar&#x27;: False, &#x27;with_coverage&#x27;: False, &#x27;port&#x27;: 8000, &#x27;maxthreads&#x27;: None, &#x27;softcron&#x27;: False, &#x27;server_name&#x27;: &#x27;Neocomp&#x27;, &#x27;bpython&#x27;: False, &#x27;nogui&#x27;: False, &#x27;pid_filename&#x27;: &#x27;httpserver.pid&#x27;, &#x27;extcron&#x27;: False, &#x27;runcron&#x27;: False, &#x27;run_system_tests&#x27;: False, &#x27;test&#x27;: None, &#x27;folder&#x27;: &#x27;D:\\\\work\\\\web2py_src\\\\web2py&#x27;, &#x27;config&#x27;: &#x27;&#x27;, &#x27;import_models&#x27;: False, &#x27;winservice&#x27;: &#x27;&#x27;, &#x27;shell&#x27;: None, &#x27;run&#x27;: &#x27;&#x27;, &#x27;log_filename&#x27;: &#x27;httpserver.log&#x27;, &#x27;debuglevel&#x27;: 30, &#x27;args&#x27;: [&#x27;&#x27;], &#x27;socket_timeout&#x27;: 5, &#x27;ssl_ca_certificate&#x27;: None, &#x27;scheduler&#x27;: None, &#x27;profiler_filename&#x27;: None, &#x27;ssl_private_key&#x27;: &#x27;&#x27;, &#x27;scheduler_groups&#x27;: None, &#x27;password&#x27;: &#x27;12345&#x27;, &#x27;request_queue_size&#x27;: 5, &#x27;ssl_certificate&#x27;: &#x27;&#x27;, &#x27;cronjob&#x27;: False, &#x27;numthreads&#x27;: None, &#x27;quiet&#x27;: False, &#x27;interfaces&#x27;: None, &#x27;minthreads&#x27;: None, &#x27;timeout&#x27;: 10, &#x27;plain&#x27;: True, &#x27;nobanner&#x27;: False}&gt;</div></td></tr><tr><td style="font-weight:bold;vertical-align:top">content_length</td><td valign="top">:</td><td><div>606</div></td></tr><tr><td style="font-weight:bold;vertical-align:top">content_type</td><td valign="top">:</td><td><div>multipart/form-data; boundary=---------------------------288951295014893</div></td></tr><tr><td style="font-weight:bold;vertical-align:top">db_sessions</td><td valign="top">:</td><td><div>set([])</div></td></tr><tr><td style="font-weight:bold;vertical-align:top">debugging</td><td valign="top">:</td><td><div>True</div></td></tr><tr><td style="font-weight:bold;vertical-align:top">gluon_parent</td><td valign="top">:</td><td><div>D:\\work\\web2py_src\\web2py</div></td></tr><tr><td style="font-weight:bold;vertical-align:top">http_accept</td><td valign="top">:</td><td><div>text/html,application/xhtml+xml,application/xml;q=0.9,*/*;q=0.8</div></td></tr><tr><td style="font-weight:bold;vertical-align:top">http_accept_encoding</td><td valign="top">:</td><td><div>gzip, deflate</div></td></tr><tr><td style="font-weight:bold;vertical-align:top">http_accept_language</td><td valign="top">:</td><td><div>ru-RU,ru;q=0.8,en-US;q=0.5,en;q=0.3</div></td></tr><tr><td style="font-weight:bold;vertical-align:top">http_connection</td><td valign="top">:</td><td><div>keep-alive</div></td></tr><tr><td style="font-weight:bold;vertical-align:top">http_content_length</td><td valign="top">:</td><td><div>606</div></td></tr><tr><td style="font-weight:bold;vertical-align:top">http_content_type</td><td valign="top">:</td><td><div>multipart/form-data; boundary=---------------------------288951295014893</div></td></tr><tr><td style="font-weight:bold;vertical-align:top">http_cookie</td><td valign="top">:</td><td><div>session_id_welcome=127.0.0.1-8955e61f-7038-42e8-b420-e2f359783fdc; session_id_admin=127.0.0.1-339a5dde-2682-48d9-9caf-a58d44f9858a; session_id_news=127.0.0.1-18f5d805-0ac0-43dd-8116-c208695abdf6</div></td></tr><tr><td style="font-weight:bold;vertical-align:top">http_host</td><td valign="top">:</td><td><div>127.0.0.1:8000</div></td></tr><tr><td style="font-weight:bold;vertical-align:top">http_referer</td><td valign="top">:</td><td><div>http://127.0.0.1:8000/news/default/category_edit/9</div></td></tr><tr><td style="font-weight:bold;vertical-align:top">http_user_agent</td><td valign="top">:</td><td><div>Mozilla/5.0 (Windows NT 6.1; WOW64; rv:21.0) Gecko/20100101 Firefox/21.0</div></td></tr><tr><td style="font-weight:bold;vertical-align:top">is_jython</td><td valign="top">:</td><td><div>False</div></td></tr><tr><td style="font-weight:bold;vertical-align:top">is_pypy</td><td valign="top">:</td><td><div>False</div></td></tr><tr><td style="font-weight:bold;vertical-align:top">local_hosts</td><td valign="top">:</td><td><div><table><tr><td><div>::ffff:127.0.0.1</div></td></tr><tr><td><div>::1</div></td></tr><tr><td><div>Neocomp</div></td></tr><tr><td><div>192.168.1.111</div></td></tr><tr><td><div>fe80::c56:972a:9eb4:ae73%15</div></td></tr><tr><td><div>127.0.0.1</div></td></tr></table></div></td></tr><tr><td style="font-weight:bold;vertical-align:top">path_info</td><td valign="top">:</td><td><div>/news/default/category_edit/9</div></td></tr><tr><td style="font-weight:bold;vertical-align:top">query_string</td><td valign="top">:</td><td><div></div></td></tr><tr><td style="font-weight:bold;vertical-align:top">remote_addr</td><td valign="top">:</td><td><div>127.0.0.1</div></td></tr><tr><td style="font-weight:bold;vertical-align:top">remote_port</td><td valign="top">:</td><td><div>60764</div></td></tr><tr><td style="font-weight:bold;vertical-align:top">request_method</td><td valign="top">:</td><td><div>POST</div></td></tr><tr><td style="font-weight:bold;vertical-align:top">request_uri</td><td valign="top">:</td><td><div>/news/default/category_edit/9</div></td></tr><tr><td style="font-weight:bold;vertical-align:top">script_name</td><td valign="top">:</td><td><div></div></td></tr><tr><td style="font-weight:bold;vertical-align:top">server_name</td><td valign="top">:</td><td><div>Neocomp</div></td></tr><tr><td style="font-weight:bold;vertical-align:top">server_port</td><td valign="top">:</td><td><div>8000</div></td></tr><tr><td style="font-weight:bold;vertical-align:top">server_protocol</td><td valign="top">:</td><td><div>HTTP/1.1</div></td></tr><tr><td style="font-weight:bold;vertical-align:top">server_software</td><td valign="top">:</td><td><div>Rocket 1.2.6</div></td></tr><tr><td style="font-weight:bold;vertical-align:top">web2py_path</td><td valign="top">:</td><td><div>D:\\work\\web2py_src\\web2py</div></td></tr><tr><td style="font-weight:bold;vertical-align:top">web2py_version</td><td valign="top">:</td><td><div>2.5.1-stable+timestamp.2013.06.06.15.39.19</div></td></tr><tr><td style="font-weight:bold;vertical-align:top">wsgi_errors</td><td valign="top">:</td><td><div>&lt;open file &#x27;&lt;stderr&gt;&#x27;, mode &#x27;w&#x27; at 0x01D660D0&gt;</div></td></tr><tr><td style="font-weight:bold;vertical-align:top">wsgi_file_wrapper</td><td valign="top">:</td><td><div>&lt;class wsgiref.util.FileWrapper at 0x033738F0&gt;</div></td></tr><tr><td style="font-weight:bold;vertical-align:top">wsgi_input</td><td valign="top">:</td><td><div>&lt;socket._fileobject object at 0x05E15830&gt;</div></td></tr><tr><td style="font-weight:bold;vertical-align:top">wsgi_multiprocess</td><td valign="top">:</td><td><div>False</div></td></tr><tr><td style="font-weight:bold;vertical-align:top">wsgi_multithread</td><td valign="top">:</td><td><div>True</div></td></tr><tr><td style="font-weight:bold;vertical-align:top">wsgi_run_once</td><td valign="top">:</td><td><div>False</div></td></tr><tr><td style="font-weight:bold;vertical-align:top">wsgi_url_scheme</td><td valign="top">:</td><td><div>http</div></td></tr><tr><td style="font-weight:bold;vertical-align:top">wsgi_version</td><td valign="top">:</td><td><div><table><tr><td><div>1</div></td></tr><tr><td><div>0</div></td></tr></table></div></td></tr></table></div></td></tr><tr><td style="font-weight:bold;vertical-align:top">extension</td><td valign="top">:</td><td><div>html</div></td></tr><tr><td style="font-weight:bold;vertical-align:top">folder</td><td valign="top">:</td><td><div>D:\\work\\web2py_src\\web2py\\applications\\news\\</div></td></tr><tr><td style="font-weight:bold;vertical-align:top">function</td><td valign="top">:</td><td><div>category_edit</div></td></tr><tr><td style="font-weight:bold;vertical-align:top">get_vars</td><td valign="top">:</td><td><div><table></table></div></td></tr><tr><td style="font-weight:bold;vertical-align:top">global_settings</td><td valign="top">:</td><td><div><table><tr><td style="font-weight:bold;vertical-align:top">app_folders</td><td valign="top">:</td><td><div>set([&#x27;D:\\\\work\\\\web2py_src\\\\web2py\\\\applications\\\\news\\\\&#x27;, &#x27;D:\\\\work\\\\web2py_src\\\\web2py\\\\applications\\\\admin\\\\&#x27;])</div></td></tr><tr><td style="font-weight:bold;vertical-align:top">applications_parent</td><td valign="top">:</td><td><div>D:\\work\\web2py_src\\web2py</div></td></tr><tr><td style="font-weight:bold;vertical-align:top">cmd_args</td><td valign="top">:</td><td><div><table><tr><td><div>8000</div></td></tr></table></div></td></tr><tr><td style="font-weight:bold;vertical-align:top">cmd_options</td><td valign="top">:</td><td><div>&lt;Values at 0x33ca508: {&#x27;verbose&#x27;: False, &#x27;ip&#x27;: &#x27;127.0.0.1&#x27;, &#x27;with_scheduler&#x27;: False, &#x27;ips&#x27;: [&#x27;fe80::c56:972a:9eb4:ae73%15&#x27;, &#x27;192.168.1.111&#x27;], &#x27;shutdown_timeout&#x27;: 5, &#x27;taskbar&#x27;: False, &#x27;with_coverage&#x27;: False, &#x27;port&#x27;: 8000, &#x27;maxthreads&#x27;: None, &#x27;softcron&#x27;: False, &#x27;server_name&#x27;: &#x27;Neocomp&#x27;, &#x27;bpython&#x27;: False, &#x27;nogui&#x27;: False, &#x27;pid_filename&#x27;: &#x27;httpserver.pid&#x27;, &#x27;extcron&#x27;: False, &#x27;runcron&#x27;: False, &#x27;run_system_tests&#x27;: False, &#x27;test&#x27;: None, &#x27;folder&#x27;: &#x27;D:\\\\work\\\\web2py_src\\\\web2py&#x27;, &#x27;config&#x27;: &#x27;&#x27;, &#x27;import_models&#x27;: False, &#x27;winservice&#x27;: &#x27;&#x27;, &#x27;shell&#x27;: None, &#x27;run&#x27;: &#x27;&#x27;, &#x27;log_filename&#x27;: &#x27;httpserver.log&#x27;, &#x27;debuglevel&#x27;: 30, &#x27;args&#x27;: [&#x27;&#x27;], &#x27;socket_timeout&#x27;: 5, &#x27;ssl_ca_certificate&#x27;: None, &#x27;scheduler&#x27;: None, &#x27;profiler_filename&#x27;: None, &#x27;ssl_private_key&#x27;: &#x27;&#x27;, &#x27;scheduler_groups&#x27;: None, &#x27;password&#x27;: &#x27;12345&#x27;, &#x27;request_queue_size&#x27;: 5, &#x27;ssl_certificate&#x27;: &#x27;&#x27;, &#x27;cronjob&#x27;: False, &#x27;numthreads&#x27;: None, &#x27;quiet&#x27;: False, &#x27;interfaces&#x27;: None, &#x27;minthreads&#x27;: None, &#x27;timeout&#x27;: 10, &#x27;plain&#x27;: True, &#x27;nobanner&#x27;: False}&gt;</div></td></tr><tr><td style="font-weight:bold;vertical-align:top">db_sessions</td><td valign="top">:</td><td><div>set([])</div></td></tr><tr><td style="font-weight:bold;vertical-align:top">debugging</td><td valign="top">:</td><td><div>True</div></td></tr><tr><td style="font-weight:bold;vertical-align:top">gluon_parent</td><td valign="top">:</td><td><div>D:\\work\\web2py_src\\web2py</div></td></tr><tr><td style="font-weight:bold;vertical-align:top">is_jython</td><td valign="top">:</td><td><div>False</div></td></tr><tr><td style="font-weight:bold;vertical-align:top">is_pypy</td><td valign="top">:</td><td><div>False</div></td></tr><tr><td style="font-weight:bold;vertical-align:top">local_hosts</td><td valign="top">:</td><td><div><table><tr><td><div>::ffff:127.0.0.1</div></td></tr><tr><td><div>::1</div></td></tr><tr><td><div>Neocomp</div></td></tr><tr><td><div>192.168.1.111</div></td></tr><tr><td><div>fe80::c56:972a:9eb4:ae73%15</div></td></tr><tr><td><div>127.0.0.1</div></td></tr></table></div></td></tr><tr><td style="font-weight:bold;vertical-align:top">web2py_version</td><td valign="top">:</td><td><div>2.5.1-stable+timestamp.2013.06.06.15.39.19</div></td></tr></table></div></td></tr><tr><td style="font-weight:bold;vertical-align:top">is_https</td><td valign="top">:</td><td><div>False</div></td></tr><tr><td style="font-weight:bold;vertical-align:top">is_local</td><td valign="top">:</td><td><div>True</div></td></tr><tr><td style="font-weight:bold;vertical-align:top">is_restful</td><td valign="top">:</td><td><div>False</div></td></tr><tr><td style="font-weight:bold;vertical-align:top">now</td><td valign="top">:</td><td><div>datetime.datetime(2013, 6, 23, 18, 28, 55, 958000)</div></td></tr><tr><td style="font-weight:bold;vertical-align:top">post_vars</td><td valign="top">:</td><td><div><table><tr><td style="font-weight:bold;vertical-align:top">delete_this_record</td><td valign="top">:</td><td><div>on</div></td></tr><tr><td style="font-weight:bold;vertical-align:top">id</td><td valign="top">:</td><td><div>9</div></td></tr><tr><td style="font-weight:bold;vertical-align:top">title</td><td valign="top">:</td><td><div>\xd0\x9c\xd1\x83\xd0\xb7\xd1\x8b\xd0\xba\xd0\xb0</div></td></tr></table></div></td></tr><tr><td style="font-weight:bold;vertical-align:top">raw_args</td><td valign="top">:</td><td><div>9</div></td></tr><tr><td style="font-weight:bold;vertical-align:top">raw_extension</td><td valign="top">:</td><td><div>None</div></td></tr><tr><td style="font-weight:bold;vertical-align:top">url</td><td valign="top">:</td><td><div>/news/default/category_edit/9</div></td></tr><tr><td style="font-weight:bold;vertical-align:top">utcnow</td><td valign="top">:</td><td><div>datetime.datetime(2013, 6, 23, 14, 28, 55, 958000)</div></td></tr><tr><td style="font-weight:bold;vertical-align:top">uuid</td><td valign="top">:</td><td><div>news/127.0.0.1.2013-06-23.18-28-55.59dd34f2-c20c-4471-b2b9-2e6bc954c40f</div></td></tr><tr><td style="font-weight:bold;vertical-align:top">vars</td><td valign="top">:</td><td><div><table><tr><td style="font-weight:bold;vertical-align:top">delete_this_record</td><td valign="top">:</td><td><div>on</div></td></tr><tr><td style="font-weight:bold;vertical-align:top">id</td><td valign="top">:</td><td><div>9</div></td></tr><tr><td style="font-weight:bold;vertical-align:top">title</td><td valign="top">:</td><td><div>\xd0\x9c\xd1\x83\xd0\xb7\xd1\x8b\xd0\xba\xd0\xb0</div></td></tr></table></div></td></tr><tr><td style="font-weight:bold;vertical-align:top">wsgi</td><td valign="top">:</td><td><div><table><tr><td style="font-weight:bold;vertical-align:top">environ</td><td valign="top">:</td><td><div><table><tr><td style="font-weight:bold;vertical-align:top">CONTENT_LENGTH</td><td valign="top">:</td><td><div>606</div></td></tr><tr><td style="font-weight:bold;vertical-align:top">CONTENT_TYPE</td><td valign="top">:</td><td><div>multipart/form-data; boundary=---------------------------288951295014893</div></td></tr><tr><td style="font-weight:bold;vertical-align:top">HTTP_ACCEPT</td><td valign="top">:</td><td><div>text/html,application/xhtml+xml,application/xml;q=0.9,*/*;q=0.8</div></td></tr><tr><td style="font-weight:bold;vertical-align:top">HTTP_ACCEPT_ENCODING</td><td valign="top">:</td><td><div>gzip, deflate</div></td></tr><tr><td style="font-weight:bold;vertical-align:top">HTTP_ACCEPT_LANGUAGE</td><td valign="top">:</td><td><div>ru-RU,ru;q=0.8,en-US;q=0.5,en;q=0.3</div></td></tr><tr><td style="font-weight:bold;vertical-align:top">HTTP_CONNECTION</td><td valign="top">:</td><td><div>keep-alive</div></td></tr><tr><td style="font-weight:bold;vertical-align:top">HTTP_CONTENT_LENGTH</td><td valign="top">:</td><td><div>606</div></td></tr><tr><td style="font-weight:bold;vertical-align:top">HTTP_CONTENT_TYPE</td><td valign="top">:</td><td><div>multipart/form-data; boundary=---------------------------288951295014893</div></td></tr><tr><td style="font-weight:bold;vertical-align:top">HTTP_COOKIE</td><td valign="top">:</td><td><div>session_id_welcome=127.0.0.1-8955e61f-7038-42e8-b420-e2f359783fdc; session_id_admin=127.0.0.1-339a5dde-2682-48d9-9caf-a58d44f9858a; session_id_news=127.0.0.1-18f5d805-0ac0-43dd-8116-c208695abdf6</div></td></tr><tr><td style="font-weight:bold;vertical-align:top">HTTP_HOST</td><td valign="top">:</td><td><div>127.0.0.1:8000</div></td></tr><tr><td style="font-weight:bold;vertical-align:top">HTTP_REFERER</td><td valign="top">:</td><td><div>http://127.0.0.1:8000/news/default/category_edit/9</div></td></tr><tr><td style="font-weight:bold;vertical-align:top">HTTP_USER_AGENT</td><td valign="top">:</td><td><div>Mozilla/5.0 (Windows NT 6.1; WOW64; rv:21.0) Gecko/20100101 Firefox/21.0</div></td></tr><tr><td style="font-weight:bold;vertical-align:top">PATH_INFO</td><td valign="top">:</td><td><div>/news/default/category_edit/9</div></td></tr><tr><td style="font-weight:bold;vertical-align:top">QUERY_STRING</td><td valign="top">:</td><td><div></div></td></tr><tr><td style="font-weight:bold;vertical-align:top">REMOTE_ADDR</td><td valign="top">:</td><td><div>127.0.0.1</div></td></tr><tr><td style="font-weight:bold;vertical-align:top">REMOTE_PORT</td><td valign="top">:</td><td><div>60764</div></td></tr><tr><td style="font-weight:bold;vertical-align:top">REQUEST_METHOD</td><td valign="top">:</td><td><div>POST</div></td></tr><tr><td style="font-weight:bold;vertical-align:top">REQUEST_URI</td><td valign="top">:</td><td><div>/news/default/category_edit/9</div></td></tr><tr><td style="font-weight:bold;vertical-align:top">SCRIPT_NAME</td><td valign="top">:</td><td><div></div></td></tr><tr><td style="font-weight:bold;vertical-align:top">SERVER_NAME</td><td valign="top">:</td><td><div>Neocomp</div></td></tr><tr><td style="font-weight:bold;vertical-align:top">SERVER_PORT</td><td valign="top">:</td><td><div>8000</div></td></tr><tr><td style="font-weight:bold;vertical-align:top">SERVER_PROTOCOL</td><td valign="top">:</td><td><div>HTTP/1.1</div></td></tr><tr><td style="font-weight:bold;vertical-align:top">SERVER_SOFTWARE</td><td valign="top">:</td><td><div>Rocket 1.2.6</div></td></tr><tr><td style="font-weight:bold;vertical-align:top">wsgi.errors</td><td valign="top">:</td><td><div>&lt;open file &#x27;&lt;stderr&gt;&#x27;, mode &#x27;w&#x27; at 0x01D660D0&gt;</div></td></tr><tr><td style="font-weight:bold;vertical-align:top">wsgi.file_wrapper</td><td valign="top">:</td><td><div>&lt;class wsgiref.util.FileWrapper at 0x033738F0&gt;</div></td></tr><tr><td style="font-weight:bold;vertical-align:top">wsgi.input</td><td valign="top">:</td><td><div>&lt;open file &#x27;&lt;fdopen&gt;&#x27;, mode &#x27;w+b&#x27; at 0x06672338&gt;</div></td></tr><tr><td style="font-weight:bold;vertical-align:top">wsgi.multiprocess</td><td valign="top">:</td><td><div>False</div></td></tr><tr><td style="font-weight:bold;vertical-align:top">wsgi.multithread</td><td valign="top">:</td><td><div>True</div></td></tr><tr><td style="font-weight:bold;vertical-align:top">wsgi.run_once</td><td valign="top">:</td><td><div>False</div></td></tr><tr><td style="font-weight:bold;vertical-align:top">wsgi.url_scheme</td><td valign="top">:</td><td><div>http</div></td></tr><tr><td style="font-weight:bold;vertical-align:top">wsgi.version</td><td valign="top">:</td><td><div>1</div></td></tr></table></div></td></tr></table></div></td></tr></table></div>'
tRp62
sS'frames'
p63
(lp64
(dp65
S'file'
p66
S'D:\\work\\web2py_src\\web2py\\gluon\\restricted.py'
p67
sS'dump'
p68
(dp69
S'environment'
p70
S"{'A': <class 'gluon.html.A'>, 'ANY_OF': <class 'gluon.validators.ANY_OF'>, 'Auth': <class 'gluon.tools.Auth'>, 'B': <class 'gluon.html.B'>, 'BEAUTIFY': <class 'gluon.html.BEAUTIFY'>, 'BODY': <class 'gluon.html.BODY'>, 'BR': <class 'gluon.html.BR'>, 'BUTTON': <class 'gluon.html.BUTTON'>, 'CAT': <class 'gluon.html.CAT'>, 'CENTER': <class 'gluon.html.CENTER'>, ...}"
p71
sS'ccode'
p72
S'<code object <module> at 063E9068, file "D:\\work...plications\\news\\controllers/default.py", line 13>'
p73
ssS'lnum'
p74
I212
sS'lines'
p75
(dp76
I207
S'    try:'
p77
sI208
S'        if isinstance(code, types.CodeType):'
p78
sI209
S'            ccode = code'
p79
sI210
S'        else:'
p80
sI211
S'            ccode = compile2(code, layer)'
p81
sI212
S'        exec ccode in environment'
p82
sI213
S'    except HTTP:'
p83
sI214
S'        raise'
p84
sI215
S'    except RestrictedError:'
p85
sI216
S'        # do not encapsulate (obfuscate) the original RestrictedError'
p86
ssS'call'
p87
S"(code='# -*- coding: utf-8 -*-\\n# this file is released ...\\n\\nresponse._vars=response._caller(category_edit)\\n', environment={'A': <class 'gluon.html.A'>, 'ANY_OF': <class 'gluon.validators.ANY_OF'>, 'Auth': <class 'gluon.tools.Auth'>, 'B': <class 'gluon.html.B'>, 'BEAUTIFY': <class 'gluon.html.BEAUTIFY'>, 'BODY': <class 'gluon.html.BODY'>, 'BR': <class 'gluon.html.BR'>, 'BUTTON': <class 'gluon.html.BUTTON'>, 'CAT': <class 'gluon.html.CAT'>, 'CENTER': <class 'gluon.html.CENTER'>, ...}, layer=r'D:\\work\\web2py_src\\web2py\\applications\\news\\controllers/default.py')"
p88
sS'func'
p89
S'restricted'
p90
sa(dp91
g66
S'D:\\work\\web2py_src\\web2py\\applications\\news\\controllers\\default.py'
p92
sg68
(dp93
sg74
I126
sg75
(dp94
I115
S'    http://..../[app]/default/data/update/[table]/[id]'
p95
sI116
S'    http://..../[app]/default/data/delete/[table]/[id]'
p96
sI117
S'    http://..../[app]/default/data/select/[table]'
p97
sI118
S'    http://..../[app]/default/data/search/[table]'
p98
sI119
S'    but URLs must be signed, i.e. linked with'
p99
sI120
S"      A('table',_href=URL('data/tables',user_signature=True))"
p100
sI121
S'    or with the signed load operator'
p101
sI122
S"      LOAD('default','data.load',args='tables',ajax=True,user_signature=True)"
p102
sI123
S'    """'
p103
sI124
S'    return dict(form=crud())'
p104
ssg87
S'()'
p105
sg89
S'<module>'
p106
sa(dp107
g66
S'D:\\work\\web2py_src\\web2py\\gluon\\globals.py'
p108
sg68
(dp109
S'self'
p110
S'undefined'
p111
sS'f'
S'<function category_edit>'
p112
ssg74
I194
sg75
(dp113
I192
S"        self.delimiters = ('{{', '}}')"
p114
sI193
S'        self._vars = None'
p115
sI194
S'        self._caller = lambda f: f()'
p116
sI195
S'        self._view_environment = None'
p117
sI196
S'        self._custom_commit = None'
p118
sI197
S'        self._custom_rollback = None'
p119
sI198
S''
sI189
S'        self.menu = []             # used by the default view layout'
p120
sI190
S'        self.files = []            # used by web2py_ajax.html'
p121
sI191
S'        self.generic_patterns = []  # patterns to allow generic views'
p122
ssg87
S'(f=<function category_edit>)'
p123
sg89
S'<lambda>'
p124
sa(dp125
g66
S'D:\\work\\web2py_src\\web2py\\applications\\news\\controllers\\default.py'
p126
sg68
(dp127
S'form.process'
p128
S'<bound method SQLFORM.process of <gluon.sqlhtml.SQLFORM object>>'
p129
sS').accepted'
p130
g111
sS'form'
p131
S'<gluon.sqlhtml.SQLFORM object>'
p132
ssg74
I64
sg75
(dp133
I64
S'    if form.process().accepted:'
p134
sI65
S"        response.flash = '\xd0\x9a\xd0\xb0\xd1\x82\xd0\xb5\xd0\xb3\xd0\xbe\xd1\x80\xd0\xb8\xd1\x8f \xd1\x81\xd0\xbe\xd1\x85\xd1\x80\xd0\xb0\xd0\xbd\xd0\xb5\xd0\xbd\xd0\xb0'"
p135
sI66
S'    elif form.errors:'
p136
sI67
S"       response.flash = '\xd0\x9e\xd1\x88\xd0\xb8\xd0\xb1\xd0\xba\xd0\xb8'"
p137
sI68
S'    return dict(form=form)'
p138
sI59
S''
sI60
S'def category_edit():'
p139
sI61
S"    record = db.category(request.args(0)) or redirect(URL('index'))"
p140
sI62
S'    form = SQLFORM(db.category, record,'
p141
sI63
S'                   deletable = True)'
p142
ssg87
S'()'
p143
sg89
S'category_edit'
p144
sa(dp145
g66
S'D:\\work\\web2py_src\\web2py\\gluon\\html.py'
p146
sg68
(dp147
S'self'
p148
S'<gluon.sqlhtml.SQLFORM object>'
p149
sS'self.validate'
p150
S'<bound method SQLFORM.validate of <gluon.sqlhtml.SQLFORM object>>'
p151
sS'kwargs'
p152
S"{'dbio': True}"
p153
ssg74
I2188
sg75
(dp154
I2183
S'        def action():'
p155
sI2184
S'            return dict(form=SQLFORM(db.table).process(onsuccess=my_callback)'
p156
sI2185
S'        """'
p157
sI2186
S"        kwargs['dbio'] = kwargs.get('dbio', True)"
p158
sI2187
S'                                    # necessary for SQLHTML forms'
p159
sI2188
S'        self.validate(**kwargs)'
p160
sI2189
S'        return self'
p161
sI2190
S''
sI2191
S'    REDIRECT_JS = "window.location=\'%s\';return false"'
p162
sI2192
S''
ssg87
S"(self=<gluon.sqlhtml.SQLFORM object>, **kwargs={'dbio': True})"
p163
sg89
S'process'
p164
sa(dp165
g66
S'D:\\work\\web2py_src\\web2py\\gluon\\html.py'
p166
sg68
(dp167
S'self'
p168
S'<gluon.sqlhtml.SQLFORM object>'
p169
sS'self.accepts'
p170
S'<bound method SQLFORM.accepts of <gluon.sqlhtml.SQLFORM object>>'
p171
sS'kwargs'
p172
S"{'dbio': True, 'request_vars': <Storage {'_formkey': '0f071aa0-87c1-4d2c-839c-8...egory/9', 'delete_this_record': 'on', 'id': '9'}>, 'session': <Storage {'_formkey[category/8]': '3113436d-9e5a...ssion_hash': 'b575b7eec1e910b559a18500eae1b52e'}>}"
p173
ssg74
I2127
sg75
(dp174
I2122
S"        for key in ('message_onsuccess', 'message_onfailure', 'onsuccess',"
p175
sI2123
S"                    'onfailure', 'next', 'message_onchange', 'onchange'):"
p176
sI2124
S'            if key in kwargs:'
p177
sI2125
S'                del kwargs[key]'
p178
sI2126
S''
sI2127
S'        if self.accepts(**kwargs):'
p179
sI2128
S"            if onsuccess == 'flash':"
p180
sI2129
S'                if next:'
p181
sI2130
S'                    current.session.flash = message_onsuccess'
p182
sI2131
S'                else:'
p183
ssg87
S"(self=<gluon.sqlhtml.SQLFORM object>, **kwargs={'dbio': True, 'request_vars': <Storage {'_formkey': '0f071aa0-87c1-4d2c-839c-8...egory/9', 'delete_this_record': 'on', 'id': '9'}>, 'session': <Storage {'_formkey[category/8]': '3113436d-9e5a...ssion_hash': 'b575b7eec1e910b559a18500eae1b52e'}>})"
p184
sg89
S'validate'
p185
sa(dp186
g66
S'D:\\work\\web2py_src\\web2py\\gluon\\sqlhtml.py'
p187
sg68
(dp188
S'qry'
p189
S'<Query (category.id = 9)>'
p190
sS'self'
p191
S'<gluon.sqlhtml.SQLFORM object>'
p192
sS').delete'
p193
g111
sS'self.table'
p194
S'<Table category (id,title)>'
p195
sS'self.table._db'
p196
S'<DAL uri="oracle:******@xe">'
p197
ssg74
I1435
sg75
(dp198
I1430
S'                    qry = reduce(lambda x, y: x & y,'
p199
sI1431
S'                                 [self.table[k] == record_id[k]'
p200
sI1432
S'                                  for k in self.table._primarykey])'
p201
sI1433
S'                else:'
p202
sI1434
S'                    qry = self.table._id == self.record[self.id_field_name]'
p203
sI1435
S'                self.table._db(qry).delete()'
p204
sI1436
S'            self.errors.clear()'
p205
sI1437
S"            for component in self.elements('input, select, textarea'):"
p206
sI1438
S"                component['_disabled'] = True"
p207
sI1439
S'            self.accepted = True'
p208
ssg87
S"(self=<gluon.sqlhtml.SQLFORM object>, request_vars=<Storage {'_formkey': '0f071aa0-87c1-4d2c-839c-8...egory/9', 'delete_this_record': 'on', 'id': '9'}>, session=<Storage {'_formkey[category/8]': '3113436d-9e5a...ssion_hash': 'b575b7eec1e910b559a18500eae1b52e'}>, formname='category/9', keepvalues=True, onvalidation=None, dbio=True, hideerror=False, detect_record_change=False, **kwargs={})"
p209
sg89
S'accepts'
p210
sa(dp211
g66
S'D:\\work\\web2py_src\\web2py\\gluon\\dal.py'
p212
sg68
(dp213
S'self.query'
p214
S'<Query (category.id = 9)>'
p215
sS'db._adapter'
p216
S'<gluon.dal.OracleAdapter object>'
p217
sS'db'
p218
S'<DAL uri="oracle:******@xe">'
p219
sS'self'
p220
S'<Set (category.id = 9)>'
p221
sS'tablename'
p222
S"'category'"
p223
sS'ret'
p224
g111
sS'db._adapter.delete'
p225
S'<bound method OracleAdapter.delete of <gluon.dal.OracleAdapter object>>'
p226
ssg74
I9968
sg75
(dp227
I9963
S'    def delete(self):'
p228
sI9964
S'        db = self.db'
p229
sI9965
S'        tablename = db._adapter.get_table(self.query)'
p230
sI9966
S'        table = db[tablename]'
p231
sI9967
S'        if any(f(self) for f in table._before_delete): return 0'
p232
sI9968
S'        ret = db._adapter.delete(tablename,self.query)'
p233
sI9969
S'        ret and [f(self) for f in table._after_delete]'
p234
sI9970
S'        return ret'
p235
sI9971
S''
sI9972
S'    def update(self, **update_fields):'
p236
ssg87
S'(self=<Set (category.id = 9)>)'
p237
sg89
S'delete'
p238
sa(dp239
g66
S'D:\\work\\web2py_src\\web2py\\gluon\\dal.py'
p240
sg68
(dp241
S'self'
p242
S'<gluon.dal.OracleAdapter object>'
p243
sS'self.execute'
p244
S'<bound method OracleAdapter.execute of <gluon.dal.OracleAdapter object>>'
p245
sS'sql'
p246
S"'DELETE FROM category WHERE (category.id = 9);'"
p247
ssg74
I1475
sg75
(dp248
I1472
S"        if self.dbengine in ('sqlite', 'spatialite') and table._referenced_by:"
p249
sI1473
S'            deleted = [x[table._id.name] for x in db(query).select(table._id)]'
p250
sI1474
S'        ### end special code to handle CASCADE in SQLite & SpatiaLite'
p251
sI1475
S'        self.execute(sql)'
p252
sI1476
S'        try:'
p253
sI1477
S'            counter = self.cursor.rowcount'
p254
sI1478
S'        except:'
p255
sI1479
S'            counter =  None'
p256
sI1470
S'        db = self.db'
p257
sI1471
S'        table = db[tablename]'
p258
ssg87
S"(self=<gluon.dal.OracleAdapter object>, tablename='category', query=<Query (category.id = 9)>)"
p259
sg89
g238
sa(dp260
g66
S'D:\\work\\web2py_src\\web2py\\gluon\\dal.py'
p261
sg68
(dp262
S'self'
p263
S'<gluon.dal.OracleAdapter object>'
p264
sS'args'
p265
S'[]'
p266
sS'command'
p267
S"'DELETE FROM category WHERE (category.id = 9)'"
p268
sS'self.log_execute'
p269
S'<bound method OracleAdapter.log_execute of <gluon.dal.OracleAdapter object>>'
p270
ssg74
I3018
sg75
(dp271
I3013
S"            command = command[:m.start('clob')] + str(i) + command[m.end('clob'):]"
p272
sI3014
S'            args.append(m.group(\'clob\')[6:-2].replace("\'\'", "\'"))'
p273
sI3015
S'            i += 1'
p274
sI3016
S"        if command[-1:]==';':"
p275
sI3017
S'            command = command[:-1]'
p276
sI3018
S'        return self.log_execute(command, args)'
p277
sI3019
S''
sI3020
S'    def create_sequence_and_triggers(self, query, table, **args):'
p278
sI3021
S'        tablename = table._tablename'
p279
sI3022
S'        sequence_name = table._sequence_name'
p280
ssg87
S"(self=<gluon.dal.OracleAdapter object>, command='DELETE FROM category WHERE (category.id = 9)', args=[])"
p281
sg89
S'execute'
p282
sa(dp283
g66
S'D:\\work\\web2py_src\\web2py\\gluon\\dal.py'
p284
sg68
(dp285
S'a'
S"('DELETE FROM category WHERE (category.id = 9)', [])"
p286
sS'b'
g21
sS'self'
p287
S'<gluon.dal.OracleAdapter object>'
p288
sS'ret'
p289
g111
sS'self.cursor'
p290
S'<__builtin__.OracleCursor on <cx_Oracle.Connection to test@xe>>'
p291
sS'command'
p292
S"'DELETE FROM category WHERE (category.id = 9)'"
p293
sS'self.cursor.execute'
p294
S'<built-in method execute of OracleCursor object>'
p295
ssg74
I1778
sg75
(dp296
I1773
S'            command = self.filter_sql_command(command)'
p297
sI1774
S'        if self.db._debug:'
p298
sI1775
S"            LOGGER.debug('SQL: %s' % command)"
p299
sI1776
S'        self.db._lastsql = command'
p300
sI1777
S'        t0 = time.time()'
p301
sI1778
S'        ret = self.cursor.execute(command, *a[1:], **b)'
p302
sI1779
S'        self.db._timings.append((command,time.time()-t0))'
p303
sI1780
S'        del self.db._timings[:-TIMINGSSIZE]'
p304
sI1781
S'        return ret'
p305
sI1782
S''
ssg87
S"(self=<gluon.dal.OracleAdapter object>, *a=('DELETE FROM category WHERE (category.id = 9)', []), **b={})"
p306
sg89
S'log_execute'
p307
sasS'pyver'
p308
S'Python 2.7.5: c:\\python27\\python.exe (prefix: c:\\python27)'
p309
sS'session'
p310
g61
(S's\r\t\x00\x00<div><table><tr><td style="font-weight:bold;vertical-align:top">auth</td><td valign="top">:</td><td><div><table><tr><td style="font-weight:bold;vertical-align:top">expiration</td><td valign="top">:</td><td><div>3600</div></td></tr><tr><td style="font-weight:bold;vertical-align:top">hmac_key</td><td valign="top">:</td><td><div>006d884c-4c3a-492b-ad5f-1aae9f10a632</div></td></tr><tr><td style="font-weight:bold;vertical-align:top">last_visit</td><td valign="top">:</td><td><div>datetime.datetime(2013, 6, 23, 18, 27, 17, 38000)</div></td></tr><tr><td style="font-weight:bold;vertical-align:top">remember</td><td valign="top">:</td><td><div>False</div></td></tr><tr><td style="font-weight:bold;vertical-align:top">user</td><td valign="top">:</td><td><div><table><tr><td style="font-weight:bold;vertical-align:top">email</td><td valign="top">:</td><td><div>msgoloborodov@gmail.com</div></td></tr><tr><td style="font-weight:bold;vertical-align:top">first_name</td><td valign="top">:</td><td><div>\xd0\x9c\xd0\xb8\xd1\x85\xd0\xb0\xd0\xb8\xd0\xbb</div></td></tr><tr><td style="font-weight:bold;vertical-align:top">id</td><td valign="top">:</td><td><div>1L</div></td></tr><tr><td style="font-weight:bold;vertical-align:top">last_name</td><td valign="top">:</td><td><div>\xd0\x93\xd0\xbe\xd0\xbb\xd0\xbe\xd0\xb1\xd0\xbe\xd1\x80\xd0\xbe\xd0\xb4\xd0\xbe\xd0\xb2</div></td></tr><tr><td style="font-weight:bold;vertical-align:top">registration_id</td><td valign="top">:</td><td><div>None</div></td></tr><tr><td style="font-weight:bold;vertical-align:top">registration_key</td><td valign="top">:</td><td><div>None</div></td></tr><tr><td style="font-weight:bold;vertical-align:top">reset_password_key</td><td valign="top">:</td><td><div>None</div></td></tr></table></div></td></tr><tr><td style="font-weight:bold;vertical-align:top">user_groups</td><td valign="top">:</td><td><div><table><tr><td style="font-weight:bold;vertical-align:top">1</td><td valign="top">:</td><td><div>user_1</div></td></tr></table></div></td></tr></table></div></td></tr><tr><td style="font-weight:bold;vertical-align:top">flash</td><td valign="top">:</td><td><div>None</div></td></tr><tr><td style="font-weight:bold;vertical-align:top">last_orderby</td><td valign="top">:</td><td><div>None</div></td></tr><tr><td style="font-weight:bold;vertical-align:top">last_query</td><td valign="top">:</td><td><div>db.category.id&gt;0</div></td></tr></table></div>'
tRp311
sS'etype'
p312
S"<class 'cx_Oracle.IntegrityError'>"
p313
sS'date'
p314
S'Sun Jun 23 18:28:56 2013'
p315
sS'response'
p316
g61
(S's\x87,\x00\x00<div><table><tr><td style="font-weight:bold;vertical-align:top">body</td><td valign="top">:</td><td><div>&lt;cStringIO.StringO object at 0x06671560&gt;</div></td></tr><tr><td style="font-weight:bold;vertical-align:top">cookies</td><td valign="top">:</td><td><div><table><tr><td style="font-weight:bold;vertical-align:top">session_id_news</td><td valign="top">:</td><td><div>127.0.0.1-18f5d805-0ac0-43dd-8116-c208695abdf6<table><tr><td style="font-weight:bold;vertical-align:top">comment</td><td valign="top">:</td><td><div></div></td></tr><tr><td style="font-weight:bold;vertical-align:top">domain</td><td valign="top">:</td><td><div></div></td></tr><tr><td style="font-weight:bold;vertical-align:top">expires</td><td valign="top">:</td><td><div></div></td></tr><tr><td style="font-weight:bold;vertical-align:top">httponly</td><td valign="top">:</td><td><div></div></td></tr><tr><td style="font-weight:bold;vertical-align:top">max-age</td><td valign="top">:</td><td><div></div></td></tr><tr><td style="font-weight:bold;vertical-align:top">path</td><td valign="top">:</td><td><div>/</div></td></tr><tr><td style="font-weight:bold;vertical-align:top">secure</td><td valign="top">:</td><td><div></div></td></tr><tr><td style="font-weight:bold;vertical-align:top">version</td><td valign="top">:</td><td><div></div></td></tr></table></div></td></tr></table></div></td></tr><tr><td style="font-weight:bold;vertical-align:top">delimiters</td><td valign="top">:</td><td><div><table><tr><td><div>{{</div></td></tr><tr><td><div>}}</div></td></tr></table></div></td></tr><tr><td style="font-weight:bold;vertical-align:top">files</td><td valign="top">:</td><td><div><table></table></div></td></tr><tr><td style="font-weight:bold;vertical-align:top">flash</td><td valign="top">:</td><td><div></div></td></tr><tr><td style="font-weight:bold;vertical-align:top">generic_patterns</td><td valign="top">:</td><td><div><table></table></div></td></tr><tr><td style="font-weight:bold;vertical-align:top">google_analytics_id</td><td valign="top">:</td><td><div>None</div></td></tr><tr><td style="font-weight:bold;vertical-align:top">headers</td><td valign="top">:</td><td><div><table><tr><td style="font-weight:bold;vertical-align:top">X-Powered-By</td><td valign="top">:</td><td><div>web2py</div></td></tr></table></div></td></tr><tr><td style="font-weight:bold;vertical-align:top">logo</td><td valign="top">:</td><td><div><a class="brand" href="http://www.web2py.com/"><b>web<span>2</span>py</b>&trade;&nbsp;</a></div></td></tr><tr><td style="font-weight:bold;vertical-align:top">menu</td><td valign="top">:</td><td><div><table><tr><td><div><table><tr><td><div>Home</div></td></tr><tr><td><div>False</div></td></tr><tr><td><div>/news/default/index</div></td></tr><tr><td><div><table></table></div></td></tr></table></div></td></tr><tr><td><div><table><tr><td><div><span class="highlighted">web2py</span></div></td></tr><tr><td><div>False</div></td></tr><tr><td><div>http://web2py.com</div></td></tr><tr><td><div><table><tr><td><div><table><tr><td><div>My Sites</div></td></tr><tr><td><div>False</div></td></tr><tr><td><div>/admin/default/site</div></td></tr></table></div></td></tr><tr><td><div><table><tr><td><div>This App</div></td></tr><tr><td><div>False</div></td></tr><tr><td><div>/admin/default/design/news</div></td></tr><tr><td><div>[(&lt;lazyT &#x27;Controller&#x27;&gt;, False, &#x27;/admin/default/edit/news/controllers/default.py&#x27;), (&lt;lazyT &#x27;View&#x27;&gt;, False, &#x27;/admin/default/edit/news/views/default/category_edit.html&#x27;), (&lt;lazyT &#x27;Layout&#x27;&gt;, False, &#x27;/admin/default/edit/news/views/layout.html&#x27;), (&lt;lazyT &#x27;Stylesheet&#x27;&gt;, False, &#x27;/admin/default/edit/news/static/css/web2py.css&#x27;), (&lt;lazyT &#x27;DB Model&#x27;&gt;, False, &#x27;/admin/default/edit/news/models/db.py&#x27;), (&lt;lazyT &#x27;Menu Model&#x27;&gt;, False, &#x27;/admin/default/edit/news/models/menu.py&#x27;), (&lt;lazyT &#x27;Database&#x27;&gt;, False, &#x27;/news/appadmin/index&#x27;), (&lt;lazyT &#x27;Errors&#x27;&gt;, False, &#x27;/admin/default/errors/news&#x27;), (&lt;lazyT &#x27;About&#x27;&gt;, False, &#x27;/admin/default/about/news&#x27;)]</div></td></tr></table></div></td></tr><tr><td><div><table><tr><td><div>web2py.com</div></td></tr><tr><td><div>False</div></td></tr><tr><td><div>http://www.web2py.com</div></td></tr><tr><td><div>[(&lt;lazyT &#x27;Download&#x27;&gt;, False, &#x27;http://www.web2py.com/examples/default/download&#x27;), (&lt;lazyT &#x27;Support&#x27;&gt;, False, &#x27;http://www.web2py.com/examples/default/support&#x27;), (&lt;lazyT &#x27;Demo&#x27;&gt;, False, &#x27;http://web2py.com/demo_admin&#x27;), (&lt;lazyT &#x27;Quick Examples&#x27;&gt;, False, &#x27;http://web2py.com/examples/default/examples&#x27;), (&lt;lazyT &#x27;FAQ&#x27;&gt;, False, &#x27;http://web2py.com/AlterEgo&#x27;), (&lt;lazyT &#x27;Videos&#x27;&gt;, False, &#x27;http://www.web2py.com/examples/default/videos/&#x27;), (&lt;lazyT &#x27;Free Applications&#x27;&gt;, False, &#x27;http://web2py.com/appliances&#x27;), (&lt;lazyT &#x27;Plugins&#x27;&gt;, False, &#x27;http://web2py.com/plugins&#x27;), (&lt;lazyT &#x27;Layouts&#x27;&gt;, False, &#x27;http://web2py.com/layouts&#x27;), (&lt;lazyT &#x27;Recipes&#x27;&gt;, False, &#x27;http://web2pyslices.com/&#x27;), (&lt;lazyT &#x27;Semantic&#x27;&gt;, False, &#x27;http://web2py.com/semantic&#x27;)]</div></td></tr></table></div></td></tr><tr><td><div><table><tr><td><div>Documentation</div></td></tr><tr><td><div>False</div></td></tr><tr><td><div>http://www.web2py.com/book</div></td></tr><tr><td><div>[(&lt;lazyT &#x27;Preface&#x27;&gt;, False, &#x27;http://www.web2py.com/book/default/chapter/00&#x27;), (&lt;lazyT &#x27;Introduction&#x27;&gt;, False, &#x27;http://www.web2py.com/book/default/chapter/01&#x27;), (&lt;lazyT &#x27;Python&#x27;&gt;, False, &#x27;http://www.web2py.com/book/default/chapter/02&#x27;), (&lt;lazyT &#x27;Overview&#x27;&gt;, False, &#x27;http://www.web2py.com/book/default/chapter/03&#x27;), (&lt;lazyT &#x27;The Core&#x27;&gt;, False, &#x27;http://www.web2py.com/book/default/chapter/04&#x27;), (&lt;lazyT &#x27;The Views&#x27;&gt;, False, &#x27;http://www.web2py.com/book/default/chapter/05&#x27;), (&lt;lazyT &#x27;Database&#x27;&gt;, False, &#x27;http://www.web2py.com/book/default/chapter/06&#x27;), (&lt;lazyT &#x27;Forms and Validators&#x27;&gt;, False, &#x27;http://www.web2py.com/book/default/chapter/07&#x27;), (&lt;lazyT &#x27;Email and SMS&#x27;&gt;, False, &#x27;http://www.web2py.com/book/default/chapter/08&#x27;), (&lt;lazyT &#x27;Access Control&#x27;&gt;, False, &#x27;http://www.web2py.com/book/default/chapter/09&#x27;), (&lt;lazyT &#x27;Services&#x27;&gt;, False, &#x27;http://www.web2py.com/book/default/chapter/10&#x27;), (&lt;lazyT &#x27;Ajax Recipes&#x27;&gt;, False, &#x27;http://www.web2py.com/book/default/chapter/11&#x27;), (&lt;lazyT &#x27;Components and Plugins&#x27;&gt;, False, &#x27;http://www.web2py.com/book/default/chapter/12&#x27;), (&lt;lazyT &#x27;Deployment Recipes&#x27;&gt;, False, &#x27;http://www.web2py.com/book/default/chapter/13&#x27;), (&lt;lazyT &#x27;Other Recipes&#x27;&gt;, False, &#x27;http://www.web2py.com/book/default/chapter/14&#x27;), (&lt;lazyT &#x27;Buy this book&#x27;&gt;, False, &#x27;http://stores.lulu.com/web2py&#x27;)]</div></td></tr></table></div></td></tr><tr><td><div><table><tr><td><div>Community</div></td></tr><tr><td><div>False</div></td></tr><tr><td><div>None</div></td></tr><tr><td><div>[(&lt;lazyT &#x27;Groups&#x27;&gt;, False, &#x27;http://www.web2py.com/examples/default/usergroups&#x27;), (&lt;lazyT &#x27;Twitter&#x27;&gt;, False, &#x27;http://twitter.com/web2py&#x27;), (&lt;lazyT &#x27;Live Chat&#x27;&gt;, False, &#x27;http://webchat.freenode.net/?channels=web2py&#x27;)]</div></td></tr></table></div></td></tr><tr><td><div><table><tr><td><div>Plugins</div></td></tr><tr><td><div>False</div></td></tr><tr><td><div>None</div></td></tr><tr><td><div>[(&#x27;plugin_wiki&#x27;, False, &#x27;http://web2py.com/examples/default/download&#x27;), (&lt;lazyT &#x27;Other Plugins&#x27;&gt;, False, &#x27;http://web2py.com/plugins&#x27;), (&lt;lazyT &#x27;Layout Plugins&#x27;&gt;, False, &#x27;http://web2py.com/layouts&#x27;)]</div></td></tr></table></div></td></tr></table></div></td></tr></table></div></td></tr></table></div></td></tr><tr><td style="font-weight:bold;vertical-align:top">meta</td><td valign="top">:</td><td><div><table><tr><td style="font-weight:bold;vertical-align:top">author</td><td valign="top">:</td><td><div>Your Name &lt;you@example.com&gt;</div></td></tr><tr><td style="font-weight:bold;vertical-align:top">description</td><td valign="top">:</td><td><div>a cool new app</div></td></tr><tr><td style="font-weight:bold;vertical-align:top">generator</td><td valign="top">:</td><td><div>Web2py Web Framework</div></td></tr><tr><td style="font-weight:bold;vertical-align:top">keywords</td><td valign="top">:</td><td><div>web2py, python, framework</div></td></tr></table></div></td></tr><tr><td style="font-weight:bold;vertical-align:top">models_to_run</td><td valign="top">:</td><td><div><table><tr><td><div>^\\w+\\.py$</div></td></tr><tr><td><div>^default/\\w+\\.py$</div></td></tr><tr><td><div>^default/category_edit/\\w+\\.py$</div></td></tr></table></div></td></tr><tr><td style="font-weight:bold;vertical-align:top">postprocessing</td><td valign="top">:</td><td><div><table></table></div></td></tr><tr><td style="font-weight:bold;vertical-align:top">session_cookie_expires</td><td valign="top">:</td><td><div>None</div></td></tr><tr><td style="font-weight:bold;vertical-align:top">session_data_name</td><td valign="top">:</td><td><div>session_data_news</div></td></tr><tr><td style="font-weight:bold;vertical-align:top">session_file</td><td valign="top">:</td><td><div>&lt;open file &#x27;D:\\\\work\\\\web2py_src\\\\web2py\\\\applications\\\\news\\\\sessions\\\\127.0.0.1-18f5d805-0ac0-43dd-8116-c208695abdf6&#x27;, mode &#x27;rb+&#x27; at 0x06A1C020&gt;</div></td></tr><tr><td style="font-weight:bold;vertical-align:top">session_filename</td><td valign="top">:</td><td><div>D:\\work\\web2py_src\\web2py\\applications\\news\\sessions\\127.0.0.1-18f5d805-0ac0-43dd-8116-c208695abdf6</div></td></tr><tr><td style="font-weight:bold;vertical-align:top">session_id</td><td valign="top">:</td><td><div>127.0.0.1-18f5d805-0ac0-43dd-8116-c208695abdf6</div></td></tr><tr><td style="font-weight:bold;vertical-align:top">session_id_name</td><td valign="top">:</td><td><div>session_id_news</div></td></tr><tr><td style="font-weight:bold;vertical-align:top">session_locked</td><td valign="top">:</td><td><div>True</div></td></tr><tr><td style="font-weight:bold;vertical-align:top">session_new</td><td valign="top">:</td><td><div>False</div></td></tr><tr><td style="font-weight:bold;vertical-align:top">session_storage_type</td><td valign="top">:</td><td><div>file</div></td></tr><tr><td style="font-weight:bold;vertical-align:top">status</td><td valign="top">:</td><td><div>200</div></td></tr><tr><td style="font-weight:bold;vertical-align:top">subtitle</td><td valign="top">:</td><td><div>\xd0\xbd\xd0\xb0\xd1\x81\xd1\x82\xd1\x80\xd0\xbe\xd0\xb9\xd1\x82\xd0\xb5 \xd0\xb2\xd0\xbd\xd0\xb5\xd1\x88\xd0\xbd\xd0\xb8\xd0\xb9 \xd0\xb2\xd0\xb8\xd0\xb4!</div></td></tr><tr><td style="font-weight:bold;vertical-align:top">title</td><td valign="top">:</td><td><div>News</div></td></tr><tr><td style="font-weight:bold;vertical-align:top">view</td><td valign="top">:</td><td><div>default/category_edit.html</div></td></tr></table></div>'
tRp317
sS'locals'
p318
(dp319
S'a'
S"('DELETE FROM category WHERE (category.id = 9)', [])"
p320
sS'self'
p321
S'<gluon.dal.OracleAdapter object>'
p322
sS'b'
g21
sS'command'
p323
S"'DELETE FROM category WHERE (category.id = 9)'"
p324
sS't0'
p325
S'1371997736.052'
p326
sssS'traceback'
p327
S'Traceback (most recent call last):\n  File "D:\\work\\web2py_src\\web2py\\gluon\\restricted.py", line 212, in restricted\n    exec ccode in environment\n  File "D:\\work\\web2py_src\\web2py\\applications\\news\\controllers/default.py", line 126, in <module>\n  File "D:\\work\\web2py_src\\web2py\\gluon\\globals.py", line 194, in <lambda>\n    self._caller = lambda f: f()\n  File "D:\\work\\web2py_src\\web2py\\applications\\news\\controllers/default.py", line 64, in category_edit\n    if form.process().accepted:\n  File "D:\\work\\web2py_src\\web2py\\gluon\\html.py", line 2188, in process\n    self.validate(**kwargs)\n  File "D:\\work\\web2py_src\\web2py\\gluon\\html.py", line 2127, in validate\n    if self.accepts(**kwargs):\n  File "D:\\work\\web2py_src\\web2py\\gluon\\sqlhtml.py", line 1435, in accepts\n    self.table._db(qry).delete()\n  File "D:\\work\\web2py_src\\web2py\\gluon\\dal.py", line 9968, in delete\n    ret = db._adapter.delete(tablename,self.query)\n  File "D:\\work\\web2py_src\\web2py\\gluon\\dal.py", line 1475, in delete\n    self.execute(sql)\n  File "D:\\work\\web2py_src\\web2py\\gluon\\dal.py", line 3018, in execute\n    return self.log_execute(command, args)\n  File "D:\\work\\web2py_src\\web2py\\gluon\\dal.py", line 1778, in log_execute\n    ret = self.cursor.execute(command, *a[1:], **b)\nIntegrityError: ORA-02292: integrity constraint (TEST.F_CATEGORY_ID) violated - child record found\n\n'
p328
s.