(dp1
S'output'
p2
S"<type 'exceptions.LookupError'> unknown encoding: windows1251"
p3
sS'layer'
p4
S'D:\\work\\web2py_src\\web2py\\applications\\news\\views\\default/index.json'
p5
sS'code'
p6
S"from gluon.serializers import json\nresponse.write('\\r\\n', escape=False)\nresponse.write(XML(json(categories.as_list())))\nresponse.write('\\r\\n', escape=False)\nfor new in news:\n    response.write('\\r\\n\\t', escape=False)\n    response.write(XML(json(news[new].as_list(), encoding='windows1251')))\n    response.write('\\r\\n', escape=False)\n    pass\nresponse.write('\\r\\n', escape=False)"
p7
sS'snapshot'
p8
(dp9
S'exception'
p10
(dp11
S'__hash__'
p12
S"<method-wrapper '__hash__' of exceptions.LookupError object>"
p13
sS'__setattr__'
p14
S"<method-wrapper '__setattr__' of exceptions.LookupError object>"
p15
sS'__reduce_ex__'
p16
S'<built-in method __reduce_ex__ of exceptions.LookupError object>'
p17
sS'__getslice__'
p18
S"<method-wrapper '__getslice__' of exceptions.LookupError object>"
p19
sS'__getitem__'
p20
S"<method-wrapper '__getitem__' of exceptions.LookupError object>"
p21
sS'__setstate__'
p22
S'<built-in method __setstate__ of exceptions.LookupError object>'
p23
sS'__reduce__'
p24
S'<built-in method __reduce__ of exceptions.LookupError object>'
p25
sS'__str__'
p26
S"<method-wrapper '__str__' of exceptions.LookupError object>"
p27
sS'__format__'
p28
S'<built-in method __format__ of exceptions.LookupError object>'
p29
sS'__getattribute__'
p30
S"<method-wrapper '__getattribute__' of exceptions.LookupError object>"
p31
sS'__class__'
p32
S"<type 'exceptions.LookupError'>"
p33
sS'__unicode__'
p34
S'<built-in method __unicode__ of exceptions.LookupError object>'
p35
sS'__delattr__'
p36
S"<method-wrapper '__delattr__' of exceptions.LookupError object>"
p37
sS'__subclasshook__'
p38
S'<built-in method __subclasshook__ of type object>'
p39
sS'__repr__'
p40
S"<method-wrapper '__repr__' of exceptions.LookupError object>"
p41
sS'args'
p42
S"('unknown encoding: windows1251',)"
p43
sS'__dict__'
p44
S'{}'
p45
sS'__sizeof__'
p46
S'<built-in method __sizeof__ of exceptions.LookupError object>'
p47
sS'__doc__'
p48
S"'Base class for lookup errors.'"
p49
sS'__init__'
p50
S"<method-wrapper '__init__' of exceptions.LookupError object>"
p51
sS'__new__'
p52
S'<built-in method __new__ of type object>'
p53
ssS'evalue'
p54
S'unknown encoding: windows1251'
p55
sS'request'
p56
cgluon.html
XML_unpickle
p57
(S's}T\x00\x00<div><table><tr><td style="font-weight:bold;vertical-align:top">ajax</td><td valign="top">:</td><td><div>False</div></td></tr><tr><td style="font-weight:bold;vertical-align:top">application</td><td valign="top">:</td><td><div>news</div></td></tr><tr><td style="font-weight:bold;vertical-align:top">args</td><td valign="top">:</td><td><div><table></table></div></td></tr><tr><td style="font-weight:bold;vertical-align:top">body</td><td valign="top">:</td><td><div>&lt;cStringIO.StringO object at 0x08936080&gt;</div></td></tr><tr><td style="font-weight:bold;vertical-align:top">cid</td><td valign="top">:</td><td><div>None</div></td></tr><tr><td style="font-weight:bold;vertical-align:top">client</td><td valign="top">:</td><td><div>127.0.0.1</div></td></tr><tr><td style="font-weight:bold;vertical-align:top">controller</td><td valign="top">:</td><td><div>default</div></td></tr><tr><td style="font-weight:bold;vertical-align:top">cookies</td><td valign="top">:</td><td><div><table><tr><td style="font-weight:bold;vertical-align:top">session_id_admin</td><td valign="top">:</td><td><div>127.0.0.1-339a5dde-2682-48d9-9caf-a58d44f9858a<table><tr><td style="font-weight:bold;vertical-align:top">comment</td><td valign="top">:</td><td><div></div></td></tr><tr><td style="font-weight:bold;vertical-align:top">domain</td><td valign="top">:</td><td><div></div></td></tr><tr><td style="font-weight:bold;vertical-align:top">expires</td><td valign="top">:</td><td><div></div></td></tr><tr><td style="font-weight:bold;vertical-align:top">httponly</td><td valign="top">:</td><td><div></div></td></tr><tr><td style="font-weight:bold;vertical-align:top">max-age</td><td valign="top">:</td><td><div></div></td></tr><tr><td style="font-weight:bold;vertical-align:top">path</td><td valign="top">:</td><td><div></div></td></tr><tr><td style="font-weight:bold;vertical-align:top">secure</td><td valign="top">:</td><td><div></div></td></tr><tr><td style="font-weight:bold;vertical-align:top">version</td><td valign="top">:</td><td><div></div></td></tr></table></div></td></tr><tr><td style="font-weight:bold;vertical-align:top">session_id_news</td><td valign="top">:</td><td><div>127.0.0.1-18f5d805-0ac0-43dd-8116-c208695abdf6<table><tr><td style="font-weight:bold;vertical-align:top">comment</td><td valign="top">:</td><td><div></div></td></tr><tr><td style="font-weight:bold;vertical-align:top">domain</td><td valign="top">:</td><td><div></div></td></tr><tr><td style="font-weight:bold;vertical-align:top">expires</td><td valign="top">:</td><td><div></div></td></tr><tr><td style="font-weight:bold;vertical-align:top">httponly</td><td valign="top">:</td><td><div></div></td></tr><tr><td style="font-weight:bold;vertical-align:top">max-age</td><td valign="top">:</td><td><div></div></td></tr><tr><td style="font-weight:bold;vertical-align:top">path</td><td valign="top">:</td><td><div></div></td></tr><tr><td style="font-weight:bold;vertical-align:top">secure</td><td valign="top">:</td><td><div></div></td></tr><tr><td style="font-weight:bold;vertical-align:top">version</td><td valign="top">:</td><td><div></div></td></tr></table></div></td></tr><tr><td style="font-weight:bold;vertical-align:top">session_id_welcome</td><td valign="top">:</td><td><div>127.0.0.1-8955e61f-7038-42e8-b420-e2f359783fdc<table><tr><td style="font-weight:bold;vertical-align:top">comment</td><td valign="top">:</td><td><div></div></td></tr><tr><td style="font-weight:bold;vertical-align:top">domain</td><td valign="top">:</td><td><div></div></td></tr><tr><td style="font-weight:bold;vertical-align:top">expires</td><td valign="top">:</td><td><div></div></td></tr><tr><td style="font-weight:bold;vertical-align:top">httponly</td><td valign="top">:</td><td><div></div></td></tr><tr><td style="font-weight:bold;vertical-align:top">max-age</td><td valign="top">:</td><td><div></div></td></tr><tr><td style="font-weight:bold;vertical-align:top">path</td><td valign="top">:</td><td><div></div></td></tr><tr><td style="font-weight:bold;vertical-align:top">secure</td><td valign="top">:</td><td><div></div></td></tr><tr><td style="font-weight:bold;vertical-align:top">version</td><td valign="top">:</td><td><div></div></td></tr></table></div></td></tr></table></div></td></tr><tr><td style="font-weight:bold;vertical-align:top">env</td><td valign="top">:</td><td><div><table><tr><td style="font-weight:bold;vertical-align:top">app_folders</td><td valign="top">:</td><td><div>set([&#x27;D:\\\\work\\\\web2py_src\\\\web2py\\\\applications\\\\news\\\\&#x27;, &#x27;D:\\\\work\\\\web2py_src\\\\web2py\\\\applications\\\\welcome\\\\&#x27;, &#x27;D:\\\\work\\\\web2py_src\\\\web2py\\\\applications\\\\admin\\\\&#x27;])</div></td></tr><tr><td style="font-weight:bold;vertical-align:top">applications_parent</td><td valign="top">:</td><td><div>D:\\work\\web2py_src\\web2py</div></td></tr><tr><td style="font-weight:bold;vertical-align:top">cmd_args</td><td valign="top">:</td><td><div><table></table></div></td></tr><tr><td style="font-weight:bold;vertical-align:top">cmd_options</td><td valign="top">:</td><td><div>&lt;Values at 0x305f5a8: {&#x27;verbose&#x27;: False, &#x27;ip&#x27;: &#x27;127.0.0.1&#x27;, &#x27;with_scheduler&#x27;: False, &#x27;ips&#x27;: [&#x27;fe80::c56:972a:9eb4:ae73%15&#x27;, &#x27;192.168.1.2&#x27;], &#x27;shutdown_timeout&#x27;: 5, &#x27;taskbar&#x27;: False, &#x27;with_coverage&#x27;: False, &#x27;port&#x27;: 8000, &#x27;maxthreads&#x27;: None, &#x27;softcron&#x27;: False, &#x27;server_name&#x27;: &#x27;Neocomp&#x27;, &#x27;bpython&#x27;: False, &#x27;nogui&#x27;: False, &#x27;pid_filename&#x27;: &#x27;httpserver.pid&#x27;, &#x27;extcron&#x27;: False, &#x27;runcron&#x27;: False, &#x27;run_system_tests&#x27;: False, &#x27;test&#x27;: None, &#x27;folder&#x27;: &#x27;D:\\\\work\\\\web2py_src\\\\web2py&#x27;, &#x27;config&#x27;: &#x27;&#x27;, &#x27;import_models&#x27;: False, &#x27;winservice&#x27;: &#x27;&#x27;, &#x27;shell&#x27;: None, &#x27;run&#x27;: &#x27;&#x27;, &#x27;log_filename&#x27;: &#x27;httpserver.log&#x27;, &#x27;debuglevel&#x27;: 30, &#x27;args&#x27;: [&#x27;&#x27;], &#x27;socket_timeout&#x27;: 5, &#x27;ssl_ca_certificate&#x27;: None, &#x27;scheduler&#x27;: None, &#x27;profiler_filename&#x27;: None, &#x27;ssl_private_key&#x27;: &#x27;&#x27;, &#x27;scheduler_groups&#x27;: None, &#x27;password&#x27;: &#x27;&lt;ask&gt;&#x27;, &#x27;request_queue_size&#x27;: 5, &#x27;ssl_certificate&#x27;: &#x27;&#x27;, &#x27;cronjob&#x27;: False, &#x27;numthreads&#x27;: None, &#x27;quiet&#x27;: False, &#x27;interfaces&#x27;: None, &#x27;minthreads&#x27;: None, &#x27;timeout&#x27;: 10, &#x27;plain&#x27;: False, &#x27;nobanner&#x27;: False}&gt;</div></td></tr><tr><td style="font-weight:bold;vertical-align:top">db_sessions</td><td valign="top">:</td><td><div>set([])</div></td></tr><tr><td style="font-weight:bold;vertical-align:top">debugging</td><td valign="top">:</td><td><div>False</div></td></tr><tr><td style="font-weight:bold;vertical-align:top">gluon_parent</td><td valign="top">:</td><td><div>D:\\work\\web2py_src\\web2py</div></td></tr><tr><td style="font-weight:bold;vertical-align:top">http_accept</td><td valign="top">:</td><td><div>text/html,application/xhtml+xml,application/xml;q=0.9,*/*;q=0.8</div></td></tr><tr><td style="font-weight:bold;vertical-align:top">http_accept_encoding</td><td valign="top">:</td><td><div>gzip, deflate</div></td></tr><tr><td style="font-weight:bold;vertical-align:top">http_accept_language</td><td valign="top">:</td><td><div>ru-RU,ru;q=0.8,en-US;q=0.5,en;q=0.3</div></td></tr><tr><td style="font-weight:bold;vertical-align:top">http_cache_control</td><td valign="top">:</td><td><div>max-age=0</div></td></tr><tr><td style="font-weight:bold;vertical-align:top">http_connection</td><td valign="top">:</td><td><div>keep-alive</div></td></tr><tr><td style="font-weight:bold;vertical-align:top">http_cookie</td><td valign="top">:</td><td><div>session_id_welcome=127.0.0.1-8955e61f-7038-42e8-b420-e2f359783fdc; session_id_admin=127.0.0.1-339a5dde-2682-48d9-9caf-a58d44f9858a; session_id_news=127.0.0.1-18f5d805-0ac0-43dd-8116-c208695abdf6</div></td></tr><tr><td style="font-weight:bold;vertical-align:top">http_host</td><td valign="top">:</td><td><div>127.0.0.1:8000</div></td></tr><tr><td style="font-weight:bold;vertical-align:top">http_user_agent</td><td valign="top">:</td><td><div>Mozilla/5.0 (Windows NT 6.1; WOW64; rv:21.0) Gecko/20100101 Firefox/21.0</div></td></tr><tr><td style="font-weight:bold;vertical-align:top">is_jython</td><td valign="top">:</td><td><div>False</div></td></tr><tr><td style="font-weight:bold;vertical-align:top">is_pypy</td><td valign="top">:</td><td><div>False</div></td></tr><tr><td style="font-weight:bold;vertical-align:top">local_hosts</td><td valign="top">:</td><td><div><table><tr><td><div>::ffff:127.0.0.1</div></td></tr><tr><td><div>::1</div></td></tr><tr><td><div>Neocomp</div></td></tr><tr><td><div>192.168.1.2</div></td></tr><tr><td><div>fe80::c56:972a:9eb4:ae73%15</div></td></tr><tr><td><div>127.0.0.1</div></td></tr></table></div></td></tr><tr><td style="font-weight:bold;vertical-align:top">path_info</td><td valign="top">:</td><td><div>/news/default/index.json</div></td></tr><tr><td style="font-weight:bold;vertical-align:top">query_string</td><td valign="top">:</td><td><div></div></td></tr><tr><td style="font-weight:bold;vertical-align:top">remote_addr</td><td valign="top">:</td><td><div>127.0.0.1</div></td></tr><tr><td style="font-weight:bold;vertical-align:top">remote_port</td><td valign="top">:</td><td><div>58054</div></td></tr><tr><td style="font-weight:bold;vertical-align:top">request_method</td><td valign="top">:</td><td><div>GET</div></td></tr><tr><td style="font-weight:bold;vertical-align:top">request_uri</td><td valign="top">:</td><td><div>/news/default/index.json</div></td></tr><tr><td style="font-weight:bold;vertical-align:top">script_name</td><td valign="top">:</td><td><div></div></td></tr><tr><td style="font-weight:bold;vertical-align:top">server_name</td><td valign="top">:</td><td><div>Neocomp</div></td></tr><tr><td style="font-weight:bold;vertical-align:top">server_port</td><td valign="top">:</td><td><div>8000</div></td></tr><tr><td style="font-weight:bold;vertical-align:top">server_protocol</td><td valign="top">:</td><td><div>HTTP/1.1</div></td></tr><tr><td style="font-weight:bold;vertical-align:top">server_software</td><td valign="top">:</td><td><div>Rocket 1.2.6</div></td></tr><tr><td style="font-weight:bold;vertical-align:top">web2py_path</td><td valign="top">:</td><td><div>D:\\work\\web2py_src\\web2py</div></td></tr><tr><td style="font-weight:bold;vertical-align:top">web2py_version</td><td valign="top">:</td><td><div>2.5.1-stable+timestamp.2013.06.06.15.39.19</div></td></tr><tr><td style="font-weight:bold;vertical-align:top">wsgi_errors</td><td valign="top">:</td><td><div>&lt;open file &#x27;&lt;stderr&gt;&#x27;, mode &#x27;w&#x27; at 0x01D160D0&gt;</div></td></tr><tr><td style="font-weight:bold;vertical-align:top">wsgi_file_wrapper</td><td valign="top">:</td><td><div>&lt;class wsgiref.util.FileWrapper at 0x03008928&gt;</div></td></tr><tr><td style="font-weight:bold;vertical-align:top">wsgi_input</td><td valign="top">:</td><td><div>&lt;socket._fileobject object at 0x031D6EB0&gt;</div></td></tr><tr><td style="font-weight:bold;vertical-align:top">wsgi_multiprocess</td><td valign="top">:</td><td><div>False</div></td></tr><tr><td style="font-weight:bold;vertical-align:top">wsgi_multithread</td><td valign="top">:</td><td><div>True</div></td></tr><tr><td style="font-weight:bold;vertical-align:top">wsgi_run_once</td><td valign="top">:</td><td><div>False</div></td></tr><tr><td style="font-weight:bold;vertical-align:top">wsgi_url_scheme</td><td valign="top">:</td><td><div>http</div></td></tr><tr><td style="font-weight:bold;vertical-align:top">wsgi_version</td><td valign="top">:</td><td><div><table><tr><td><div>1</div></td></tr><tr><td><div>0</div></td></tr></table></div></td></tr></table></div></td></tr><tr><td style="font-weight:bold;vertical-align:top">extension</td><td valign="top">:</td><td><div>json</div></td></tr><tr><td style="font-weight:bold;vertical-align:top">folder</td><td valign="top">:</td><td><div>D:\\work\\web2py_src\\web2py\\applications\\news\\</div></td></tr><tr><td style="font-weight:bold;vertical-align:top">function</td><td valign="top">:</td><td><div>index</div></td></tr><tr><td style="font-weight:bold;vertical-align:top">get_vars</td><td valign="top">:</td><td><div><table></table></div></td></tr><tr><td style="font-weight:bold;vertical-align:top">global_settings</td><td valign="top">:</td><td><div><table><tr><td style="font-weight:bold;vertical-align:top">app_folders</td><td valign="top">:</td><td><div>set([&#x27;D:\\\\work\\\\web2py_src\\\\web2py\\\\applications\\\\news\\\\&#x27;, &#x27;D:\\\\work\\\\web2py_src\\\\web2py\\\\applications\\\\welcome\\\\&#x27;, &#x27;D:\\\\work\\\\web2py_src\\\\web2py\\\\applications\\\\admin\\\\&#x27;])</div></td></tr><tr><td style="font-weight:bold;vertical-align:top">applications_parent</td><td valign="top">:</td><td><div>D:\\work\\web2py_src\\web2py</div></td></tr><tr><td style="font-weight:bold;vertical-align:top">cmd_args</td><td valign="top">:</td><td><div><table></table></div></td></tr><tr><td style="font-weight:bold;vertical-align:top">cmd_options</td><td valign="top">:</td><td><div>&lt;Values at 0x305f5a8: {&#x27;verbose&#x27;: False, &#x27;ip&#x27;: &#x27;127.0.0.1&#x27;, &#x27;with_scheduler&#x27;: False, &#x27;ips&#x27;: [&#x27;fe80::c56:972a:9eb4:ae73%15&#x27;, &#x27;192.168.1.2&#x27;], &#x27;shutdown_timeout&#x27;: 5, &#x27;taskbar&#x27;: False, &#x27;with_coverage&#x27;: False, &#x27;port&#x27;: 8000, &#x27;maxthreads&#x27;: None, &#x27;softcron&#x27;: False, &#x27;server_name&#x27;: &#x27;Neocomp&#x27;, &#x27;bpython&#x27;: False, &#x27;nogui&#x27;: False, &#x27;pid_filename&#x27;: &#x27;httpserver.pid&#x27;, &#x27;extcron&#x27;: False, &#x27;runcron&#x27;: False, &#x27;run_system_tests&#x27;: False, &#x27;test&#x27;: None, &#x27;folder&#x27;: &#x27;D:\\\\work\\\\web2py_src\\\\web2py&#x27;, &#x27;config&#x27;: &#x27;&#x27;, &#x27;import_models&#x27;: False, &#x27;winservice&#x27;: &#x27;&#x27;, &#x27;shell&#x27;: None, &#x27;run&#x27;: &#x27;&#x27;, &#x27;log_filename&#x27;: &#x27;httpserver.log&#x27;, &#x27;debuglevel&#x27;: 30, &#x27;args&#x27;: [&#x27;&#x27;], &#x27;socket_timeout&#x27;: 5, &#x27;ssl_ca_certificate&#x27;: None, &#x27;scheduler&#x27;: None, &#x27;profiler_filename&#x27;: None, &#x27;ssl_private_key&#x27;: &#x27;&#x27;, &#x27;scheduler_groups&#x27;: None, &#x27;password&#x27;: &#x27;&lt;ask&gt;&#x27;, &#x27;request_queue_size&#x27;: 5, &#x27;ssl_certificate&#x27;: &#x27;&#x27;, &#x27;cronjob&#x27;: False, &#x27;numthreads&#x27;: None, &#x27;quiet&#x27;: False, &#x27;interfaces&#x27;: None, &#x27;minthreads&#x27;: None, &#x27;timeout&#x27;: 10, &#x27;plain&#x27;: False, &#x27;nobanner&#x27;: False}&gt;</div></td></tr><tr><td style="font-weight:bold;vertical-align:top">db_sessions</td><td valign="top">:</td><td><div>set([])</div></td></tr><tr><td style="font-weight:bold;vertical-align:top">debugging</td><td valign="top">:</td><td><div>False</div></td></tr><tr><td style="font-weight:bold;vertical-align:top">gluon_parent</td><td valign="top">:</td><td><div>D:\\work\\web2py_src\\web2py</div></td></tr><tr><td style="font-weight:bold;vertical-align:top">is_jython</td><td valign="top">:</td><td><div>False</div></td></tr><tr><td style="font-weight:bold;vertical-align:top">is_pypy</td><td valign="top">:</td><td><div>False</div></td></tr><tr><td style="font-weight:bold;vertical-align:top">local_hosts</td><td valign="top">:</td><td><div><table><tr><td><div>::ffff:127.0.0.1</div></td></tr><tr><td><div>::1</div></td></tr><tr><td><div>Neocomp</div></td></tr><tr><td><div>192.168.1.2</div></td></tr><tr><td><div>fe80::c56:972a:9eb4:ae73%15</div></td></tr><tr><td><div>127.0.0.1</div></td></tr></table></div></td></tr><tr><td style="font-weight:bold;vertical-align:top">web2py_version</td><td valign="top">:</td><td><div>2.5.1-stable+timestamp.2013.06.06.15.39.19</div></td></tr></table></div></td></tr><tr><td style="font-weight:bold;vertical-align:top">is_https</td><td valign="top">:</td><td><div>False</div></td></tr><tr><td style="font-weight:bold;vertical-align:top">is_local</td><td valign="top">:</td><td><div>True</div></td></tr><tr><td style="font-weight:bold;vertical-align:top">is_restful</td><td valign="top">:</td><td><div>False</div></td></tr><tr><td style="font-weight:bold;vertical-align:top">now</td><td valign="top">:</td><td><div>datetime.datetime(2013, 6, 24, 20, 14, 48, 540000)</div></td></tr><tr><td style="font-weight:bold;vertical-align:top">post_vars</td><td valign="top">:</td><td><div><table></table></div></td></tr><tr><td style="font-weight:bold;vertical-align:top">raw_args</td><td valign="top">:</td><td><div></div></td></tr><tr><td style="font-weight:bold;vertical-align:top">raw_extension</td><td valign="top">:</td><td><div>json</div></td></tr><tr><td style="font-weight:bold;vertical-align:top">url</td><td valign="top">:</td><td><div>/news/default/index.json</div></td></tr><tr><td style="font-weight:bold;vertical-align:top">utcnow</td><td valign="top">:</td><td><div>datetime.datetime(2013, 6, 24, 16, 14, 48, 540000)</div></td></tr><tr><td style="font-weight:bold;vertical-align:top">uuid</td><td valign="top">:</td><td><div>news/127.0.0.1.2013-06-24.20-14-48.0788c41f-015e-40d7-84dd-d87bd30660b8</div></td></tr><tr><td style="font-weight:bold;vertical-align:top">vars</td><td valign="top">:</td><td><div><table></table></div></td></tr><tr><td style="font-weight:bold;vertical-align:top">wsgi</td><td valign="top">:</td><td><div><table><tr><td style="font-weight:bold;vertical-align:top">environ</td><td valign="top">:</td><td><div><table><tr><td style="font-weight:bold;vertical-align:top">HTTP_ACCEPT</td><td valign="top">:</td><td><div>text/html,application/xhtml+xml,application/xml;q=0.9,*/*;q=0.8</div></td></tr><tr><td style="font-weight:bold;vertical-align:top">HTTP_ACCEPT_ENCODING</td><td valign="top">:</td><td><div>gzip, deflate</div></td></tr><tr><td style="font-weight:bold;vertical-align:top">HTTP_ACCEPT_LANGUAGE</td><td valign="top">:</td><td><div>ru-RU,ru;q=0.8,en-US;q=0.5,en;q=0.3</div></td></tr><tr><td style="font-weight:bold;vertical-align:top">HTTP_CACHE_CONTROL</td><td valign="top">:</td><td><div>max-age=0</div></td></tr><tr><td style="font-weight:bold;vertical-align:top">HTTP_CONNECTION</td><td valign="top">:</td><td><div>keep-alive</div></td></tr><tr><td style="font-weight:bold;vertical-align:top">HTTP_COOKIE</td><td valign="top">:</td><td><div>session_id_welcome=127.0.0.1-8955e61f-7038-42e8-b420-e2f359783fdc; session_id_admin=127.0.0.1-339a5dde-2682-48d9-9caf-a58d44f9858a; session_id_news=127.0.0.1-18f5d805-0ac0-43dd-8116-c208695abdf6</div></td></tr><tr><td style="font-weight:bold;vertical-align:top">HTTP_HOST</td><td valign="top">:</td><td><div>127.0.0.1:8000</div></td></tr><tr><td style="font-weight:bold;vertical-align:top">HTTP_USER_AGENT</td><td valign="top">:</td><td><div>Mozilla/5.0 (Windows NT 6.1; WOW64; rv:21.0) Gecko/20100101 Firefox/21.0</div></td></tr><tr><td style="font-weight:bold;vertical-align:top">PATH_INFO</td><td valign="top">:</td><td><div>/news/default/index.json</div></td></tr><tr><td style="font-weight:bold;vertical-align:top">QUERY_STRING</td><td valign="top">:</td><td><div></div></td></tr><tr><td style="font-weight:bold;vertical-align:top">REMOTE_ADDR</td><td valign="top">:</td><td><div>127.0.0.1</div></td></tr><tr><td style="font-weight:bold;vertical-align:top">REMOTE_PORT</td><td valign="top">:</td><td><div>58054</div></td></tr><tr><td style="font-weight:bold;vertical-align:top">REQUEST_METHOD</td><td valign="top">:</td><td><div>GET</div></td></tr><tr><td style="font-weight:bold;vertical-align:top">REQUEST_URI</td><td valign="top">:</td><td><div>/news/default/index.json</div></td></tr><tr><td style="font-weight:bold;vertical-align:top">SCRIPT_NAME</td><td valign="top">:</td><td><div></div></td></tr><tr><td style="font-weight:bold;vertical-align:top">SERVER_NAME</td><td valign="top">:</td><td><div>Neocomp</div></td></tr><tr><td style="font-weight:bold;vertical-align:top">SERVER_PORT</td><td valign="top">:</td><td><div>8000</div></td></tr><tr><td style="font-weight:bold;vertical-align:top">SERVER_PROTOCOL</td><td valign="top">:</td><td><div>HTTP/1.1</div></td></tr><tr><td style="font-weight:bold;vertical-align:top">SERVER_SOFTWARE</td><td valign="top">:</td><td><div>Rocket 1.2.6</div></td></tr><tr><td style="font-weight:bold;vertical-align:top">wsgi.errors</td><td valign="top">:</td><td><div>&lt;open file &#x27;&lt;stderr&gt;&#x27;, mode &#x27;w&#x27; at 0x01D160D0&gt;</div></td></tr><tr><td style="font-weight:bold;vertical-align:top">wsgi.file_wrapper</td><td valign="top">:</td><td><div>&lt;class wsgiref.util.FileWrapper at 0x03008928&gt;</div></td></tr><tr><td style="font-weight:bold;vertical-align:top">wsgi.input</td><td valign="top">:</td><td><div>&lt;cStringIO.StringO object at 0x08936080&gt;</div></td></tr><tr><td style="font-weight:bold;vertical-align:top">wsgi.multiprocess</td><td valign="top">:</td><td><div>False</div></td></tr><tr><td style="font-weight:bold;vertical-align:top">wsgi.multithread</td><td valign="top">:</td><td><div>True</div></td></tr><tr><td style="font-weight:bold;vertical-align:top">wsgi.run_once</td><td valign="top">:</td><td><div>False</div></td></tr><tr><td style="font-weight:bold;vertical-align:top">wsgi.url_scheme</td><td valign="top">:</td><td><div>http</div></td></tr><tr><td style="font-weight:bold;vertical-align:top">wsgi.version</td><td valign="top">:</td><td><div>1</div></td></tr></table></div></td></tr></table></div></td></tr></table></div>'
tRp58
sS'frames'
p59
(lp60
(dp61
S'file'
p62
S'D:\\work\\web2py_src\\web2py\\gluon\\restricted.py'
p63
sS'dump'
p64
(dp65
S'environment'
p66
S"{'A': <class 'gluon.html.A'>, 'ANY_OF': <class 'gluon.validators.ANY_OF'>, 'Auth': <class 'gluon.tools.Auth'>, 'B': <class 'gluon.html.B'>, 'BEAUTIFY': <class 'gluon.html.BEAUTIFY'>, 'BODY': <class 'gluon.html.BODY'>, 'BR': <class 'gluon.html.BR'>, 'BUTTON': <class 'gluon.html.BUTTON'>, 'CAT': <class 'gluon.html.CAT'>, 'CENTER': <class 'gluon.html.CENTER'>, ...}"
p67
sS'ccode'
p68
S'<code object <module> at 0858DB60, file "D:\\work...lications\\news\\views\\default/index.json", line 1>'
p69
ssS'lnum'
p70
I212
sS'lines'
p71
(dp72
I207
S'    try:'
p73
sI208
S'        if isinstance(code, types.CodeType):'
p74
sI209
S'            ccode = code'
p75
sI210
S'        else:'
p76
sI211
S'            ccode = compile2(code, layer)'
p77
sI212
S'        exec ccode in environment'
p78
sI213
S'    except HTTP:'
p79
sI214
S'        raise'
p80
sI215
S'    except RestrictedError:'
p81
sI216
S'        # do not encapsulate (obfuscate) the original RestrictedError'
p82
ssS'call'
p83
S'(code="from gluon.serializers import json\\nresponse.writ...se)\\n    pass\\nresponse.write(\'\\\\r\\\\n\', escape=False)", environment={\'A\': <class \'gluon.html.A\'>, \'ANY_OF\': <class \'gluon.validators.ANY_OF\'>, \'Auth\': <class \'gluon.tools.Auth\'>, \'B\': <class \'gluon.html.B\'>, \'BEAUTIFY\': <class \'gluon.html.BEAUTIFY\'>, \'BODY\': <class \'gluon.html.BODY\'>, \'BR\': <class \'gluon.html.BR\'>, \'BUTTON\': <class \'gluon.html.BUTTON\'>, \'CAT\': <class \'gluon.html.CAT\'>, \'CENTER\': <class \'gluon.html.CENTER\'>, ...}, layer=r\'D:\\work\\web2py_src\\web2py\\applications\\news\\views\\default/index.json\')'
p84
sS'func'
p85
S'restricted'
p86
sa(dp87
g62
S'D:\\work\\web2py_src\\web2py\\applications\\news\\views\\default\\index.json'
p88
sg64
(dp89
sg70
I7
sg71
(dp90
I1
S'{{from gluon.serializers import json}}'
p91
sI2
S'{{=XML(json(categories.as_list()))}}'
p92
sI3
S'{{for new in news:}}'
p93
sI4
S"\t{{=XML(json(news[new].as_list(), encoding='windows1251'))}}"
p94
sI5
S'{{pass}}'
p95
ssg83
S'()'
p96
sg85
S'<module>'
p97
sa(dp98
g62
S'D:\\work\\web2py_src\\web2py\\gluon\\serializers.py'
p99
sg64
(dp100
S'default'
p101
S'<function custom_json>'
p102
sS').replace'
p103
S'<built-in method replace of str object>'
p104
sS'encoding'
p105
S"'windows1251'"
p106
ssg70
I122
sg71
(dp107
I117
S''
sI118
S"def json(value, default=custom_json, encoding='UTF-8'):"
p108
sI119
S'    # replace JavaScript incompatible spacing'
p109
sI120
S'    # http://timelessrepo.com/json-isnt-a-javascript-subset'
p110
sI121
S'    return json_parser.dumps(value,'
p111
sI122
S"        default=default,encoding=encoding).replace(ur'\\u2028',"
p112
sI123
S"                                 '\\\\u2028').replace(ur'\\2029',"
p113
sI124
S"                                                    '\\\\u2029')"
p114
sI125
S''
sI126
S'def csv(value):'
p115
ssg83
S"(value=[{'anons': '\\xd0\\x93\\xd0\\xbe\\xd1\\x81\\xd1\\x83\\xd0\\xb4\\xd0\\xb0\\xd1\\x80\\xd1\\x81\\xd1\\x82\\xd0\\xb2\\xd0\\xb5\\xd0\\xbd\\xd0\\xbd\\xd1\\x8b\\xd0\\xb9 \\xd1\\x81\\xd0\\xb5\\xd0\\xba\\xd1\\x80\\xd0\\xb5\\xd1\\x82\\xd0\\xb0\\xd1\\x80\\xd1...\\xd0\\xb5\\xd0\\xbd\\xd0\\xb8\\xd0\\xb8 \\xd1\\x81\\xd0\\xb5\\xd0\\xba\\xd1\\x80\\xd0\\xb5\\xd1\\x82\\xd0\\xbd\\xd0\\xbe\\xd0\\xb9 \\xd0\\xb8\\xd0\\xbd\\xd1\\x84\\xd0\\xbe\\xd1\\x80\\xd0\\xbc\\xd0\\xb0\\xd1\\x86\\xd0\\xb8\\xd0\\xb8.', 'body': '\\xd0\\x93\\xd0\\xbe\\xd1\\x81\\xd1\\x83\\xd0\\xb4\\xd0\\xb0\\xd1\\x80\\xd1\\x81\\xd1\\x82\\xd0\\xb2\\xd0\\xb5\\xd0\\xbd\\xd0\\xbd\\xd1\\x8b\\xd0\\xb9 \\xd1\\x81\\xd0\\xb5\\xd0\\xba\\xd1\\x80\\xd0\\xb5\\xd1\\x82\\xd0\\xb0\\xd1\\x80\\xd1...\\xbb\\xd1\\x83\\xd1\\x87\\xd0\\xb5\\xd0\\xbd\\xd0\\xb8\\xd0\\xb8 \\xd1\\x83\\xd0\\xb1\\xd0\\xb5\\xd0\\xb6\\xd0\\xb8\\xd1\\x89\\xd0\\xb0 \\xd0\\xb2 \\xd0\\x98\\xd1\\x81\\xd0\\xbb\\xd0\\xb0\\xd0\\xbd\\xd0\\xb4\\xd0\\xb8\\xd0\\xb8.', 'id': 6L, 'id_category': 8L, 'id_user': 1L, 'image': 'news.image.902c489399211374.7069635f393363346438...06236643561626231663831376163643136302e6a7067.jpg', 'newsdate': '2013-06-24', 'title': '\\xd0\\xa1\\xd0\\xa8\\xd0\\x90 \\xd0\\xbf\\xd1\\x80\\xd0\\xb8\\xd0\\xb3\\xd1\\x80\\xd0\\xbe\\xd0\\xb7\\xd0\\xb8\\xd0\\xbb\\xd0\\xb8 \\xd0\\xa0\\xd0\\xbe\\xd1\\x81\\xd1\\x81\\xd0\\xb8\\xd0\\xb8 \\xd0\\xb8 \\xd0\\x9a\\xd0\\xb8...\\xd0\\xb0\\xd0\\xb7 \\xd0\\xb2\\xd1\\x8b\\xd0\\xb4\\xd0\\xb0\\xd1\\x82\\xd1\\x8c \\xd0\\xad\\xd0\\xb4\\xd0\\xb2\\xd0\\xb0\\xd1\\x80\\xd0\\xb4\\xd0\\xb0 \\xd0\\xa1\\xd0\\xbd\\xd0\\xbe\\xd1\\x83\\xd0\\xb4\\xd0\\xb5\\xd0\\xbd\\xd0\\xb0'}, {'anons': '\\xd0\\x9f\\xd1\\x80\\xd0\\xb5\\xd0\\xbc\\xd1\\x8c\\xd0\\xb5\\xd1\\x80-\\xd0\\xbc\\xd0\\xb8\\xd0\\xbd\\xd0\\xb8\\xd1\\x81\\xd1\\x82\\xd1\\x80 \\xd0\\xa0\\xd0\\xbe\\xd1\\x81\\xd1\\x81\\xd0\\xb8\\xd0\\xb8 \\xd0\\x94\\xd0\\xbc\\xd0...\\xb0\\xd1\\x82\\xd1\\x8c \\xd1\\x81\\xd0\\xbe\\xd0\\xbe\\xd0\\xb1\\xd1\\x89\\xd0\\xb5\\xd0\\xbd\\xd0\\xb8\\xd1\\x8f \\xd0\\xbf\\xd1\\x80\\xd0\\xb5\\xd1\\x81\\xd1\\x81-\\xd1\\x81\\xd0\\xbb\\xd1\\x83\\xd0\\xb6\\xd0\\xb1\\xd0\\xb5.', 'body': '\\xd0\\x92\\xd0\\xb8\\xd1\\x86\\xd0\\xb5-\\xd0\\xbf\\xd1\\x80\\xd0\\xb5\\xd0\\xbc\\xd1\\x8c\\xd0\\xb5\\xd1\\x80 \\xd0\\x94\\xd0\\xbc\\xd0\\xb8\\xd1\\x82\\xd1\\x80\\xd0\\xb8\\xd0\\xb9 \\xd0\\xa0\\xd0\\xbe\\xd0\\xb3\\xd0\\xbe\\xd0...\\xd0\\xb5\\xd1\\x80\\xd1\\x82\\xd0\\xb0 \\xd0\\xb2 \\xd0\\x9c\\xd0\\xbe\\xd1\\x81\\xd0\\xba\\xd0\\xb2\\xd0\\xb5, \\xc2\\xab\\xd0\\xb1\\xd1\\x8b\\xd0\\xb2\\xd1\\x88\\xd0\\xb5\\xd0\\xb9 \\xd0\\xb1...\\xc2\\xbb.', 'id': 7L, 'id_category': 8L, 'id_user': 1L, 'image': 'news.image.8d79ba6b833ce8a6.383537335f6269672e6a7067.jpg', 'newsdate': '2013-06-24', 'title': '\\xd0\\x92\\xd0\\xb8\\xd1\\x86\\xd0\\xb5-\\xd0\\xbf\\xd1\\x80\\xd0\\xb5\\xd0\\xbc\\xd1\\x8c\\xd0\\xb5\\xd1\\x80 \\xd0\\xa0\\xd0\\xbe\\xd0\\xb3\\xd0\\xbe\\xd0\\xb7\\xd0\\xb8\\xd0\\xbd \\xd1\\x80\\xd0\\xb5\\xd1\\x88\\xd0\\xb8\\xd0\\xbb \\xd1\\x81\\xd0\\xbd\\xd0\\xbe\\xd0\\xb2\\xd0\\xb0 \\xd0\\xb2\\xd0\\xb5\\xd1\\x81\\xd1\\x82\\xd0\\xb8 Twitter'}], default=<function custom_json>, encoding='windows1251')"
p116
sg85
S'json'
p117
sa(dp118
g62
S'c:\\python27\\lib\\json\\__init__.py'
p119
sg64
(dp120
S'obj'
p121
S"[{'anons': '\\xd0\\x93\\xd0\\xbe\\xd1\\x81\\xd1\\x83\\xd0\\xb4\\xd0\\xb0\\xd1\\x80\\xd1\\x81\\xd1\\x82\\xd0\\xb2\\xd0\\xb5\\xd0\\xbd\\xd0\\xbd\\xd1\\x8b\\xd0\\xb9 \\xd1\\x81\\xd0\\xb5\\xd0\\xba\\xd1\\x80\\xd0\\xb5\\xd1\\x82\\xd0\\xb0\\xd1\\x80\\xd1...\\xd0\\xb5\\xd0\\xbd\\xd0\\xb8\\xd0\\xb8 \\xd1\\x81\\xd0\\xb5\\xd0\\xba\\xd1\\x80\\xd0\\xb5\\xd1\\x82\\xd0\\xbd\\xd0\\xbe\\xd0\\xb9 \\xd0\\xb8\\xd0\\xbd\\xd1\\x84\\xd0\\xbe\\xd1\\x80\\xd0\\xbc\\xd0\\xb0\\xd1\\x86\\xd0\\xb8\\xd0\\xb8.', 'body': '\\xd0\\x93\\xd0\\xbe\\xd1\\x81\\xd1\\x83\\xd0\\xb4\\xd0\\xb0\\xd1\\x80\\xd1\\x81\\xd1\\x82\\xd0\\xb2\\xd0\\xb5\\xd0\\xbd\\xd0\\xbd\\xd1\\x8b\\xd0\\xb9 \\xd1\\x81\\xd0\\xb5\\xd0\\xba\\xd1\\x80\\xd0\\xb5\\xd1\\x82\\xd0\\xb0\\xd1\\x80\\xd1...\\xbb\\xd1\\x83\\xd1\\x87\\xd0\\xb5\\xd0\\xbd\\xd0\\xb8\\xd0\\xb8 \\xd1\\x83\\xd0\\xb1\\xd0\\xb5\\xd0\\xb6\\xd0\\xb8\\xd1\\x89\\xd0\\xb0 \\xd0\\xb2 \\xd0\\x98\\xd1\\x81\\xd0\\xbb\\xd0\\xb0\\xd0\\xbd\\xd0\\xb4\\xd0\\xb8\\xd0\\xb8.', 'id': 6L, 'id_category': 8L, 'id_user': 1L, 'image': 'news.image.902c489399211374.7069635f393363346438...06236643561626231663831376163643136302e6a7067.jpg', 'newsdate': '2013-06-24', 'title': '\\xd0\\xa1\\xd0\\xa8\\xd0\\x90 \\xd0\\xbf\\xd1\\x80\\xd0\\xb8\\xd0\\xb3\\xd1\\x80\\xd0\\xbe\\xd0\\xb7\\xd0\\xb8\\xd0\\xbb\\xd0\\xb8 \\xd0\\xa0\\xd0\\xbe\\xd1\\x81\\xd1\\x81\\xd0\\xb8\\xd0\\xb8 \\xd0\\xb8 \\xd0\\x9a\\xd0\\xb8...\\xd0\\xb0\\xd0\\xb7 \\xd0\\xb2\\xd1\\x8b\\xd0\\xb4\\xd0\\xb0\\xd1\\x82\\xd1\\x8c \\xd0\\xad\\xd0\\xb4\\xd0\\xb2\\xd0\\xb0\\xd1\\x80\\xd0\\xb4\\xd0\\xb0 \\xd0\\xa1\\xd0\\xbd\\xd0\\xbe\\xd1\\x83\\xd0\\xb4\\xd0\\xb5\\xd0\\xbd\\xd0\\xb0'}, {'anons': '\\xd0\\x9f\\xd1\\x80\\xd0\\xb5\\xd0\\xbc\\xd1\\x8c\\xd0\\xb5\\xd1\\x80-\\xd0\\xbc\\xd0\\xb8\\xd0\\xbd\\xd0\\xb8\\xd1\\x81\\xd1\\x82\\xd1\\x80 \\xd0\\xa0\\xd0\\xbe\\xd1\\x81\\xd1\\x81\\xd0\\xb8\\xd0\\xb8 \\xd0\\x94\\xd0\\xbc\\xd0...\\xb0\\xd1\\x82\\xd1\\x8c \\xd1\\x81\\xd0\\xbe\\xd0\\xbe\\xd0\\xb1\\xd1\\x89\\xd0\\xb5\\xd0\\xbd\\xd0\\xb8\\xd1\\x8f \\xd0\\xbf\\xd1\\x80\\xd0\\xb5\\xd1\\x81\\xd1\\x81-\\xd1\\x81\\xd0\\xbb\\xd1\\x83\\xd0\\xb6\\xd0\\xb1\\xd0\\xb5.', 'body': '\\xd0\\x92\\xd0\\xb8\\xd1\\x86\\xd0\\xb5-\\xd0\\xbf\\xd1\\x80\\xd0\\xb5\\xd0\\xbc\\xd1\\x8c\\xd0\\xb5\\xd1\\x80 \\xd0\\x94\\xd0\\xbc\\xd0\\xb8\\xd1\\x82\\xd1\\x80\\xd0\\xb8\\xd0\\xb9 \\xd0\\xa0\\xd0\\xbe\\xd0\\xb3\\xd0\\xbe\\xd0...\\xd0\\xb5\\xd1\\x80\\xd1\\x82\\xd0\\xb0 \\xd0\\xb2 \\xd0\\x9c\\xd0\\xbe\\xd1\\x81\\xd0\\xba\\xd0\\xb2\\xd0\\xb5, \\xc2\\xab\\xd0\\xb1\\xd1\\x8b\\xd0\\xb2\\xd1\\x88\\xd0\\xb5\\xd0\\xb9 \\xd0\\xb1...\\xc2\\xbb.', 'id': 7L, 'id_category': 8L, 'id_user': 1L, 'image': 'news.image.8d79ba6b833ce8a6.383537335f6269672e6a7067.jpg', 'newsdate': '2013-06-24', 'title': '\\xd0\\x92\\xd0\\xb8\\xd1\\x86\\xd0\\xb5-\\xd0\\xbf\\xd1\\x80\\xd0\\xb5\\xd0\\xbc\\xd1\\x8c\\xd0\\xb5\\xd1\\x80 \\xd0\\xa0\\xd0\\xbe\\xd0\\xb3\\xd0\\xbe\\xd0\\xb7\\xd0\\xb8\\xd0\\xbd \\xd1\\x80\\xd0\\xb5\\xd1\\x88\\xd0\\xb8\\xd0\\xbb \\xd1\\x81\\xd0\\xbd\\xd0\\xbe\\xd0\\xb2\\xd0\\xb0 \\xd0\\xb2\\xd0\\xb5\\xd1\\x81\\xd1\\x82\\xd0\\xb8 Twitter'}]"
p122
sS'sort_keys'
p123
S'False'
p124
sS'kw'
p125
g45
sS').encode'
p126
S'undefined'
p127
ssg70
I250
sg71
(dp128
I245
S'        cls = JSONEncoder'
p129
sI246
S'    return cls('
p130
sI247
S'        skipkeys=skipkeys, ensure_ascii=ensure_ascii,'
p131
sI248
S'        check_circular=check_circular, allow_nan=allow_nan, indent=indent,'
p132
sI249
S'        separators=separators, encoding=encoding, default=default,'
p133
sI250
S'        sort_keys=sort_keys, **kw).encode(obj)'
p134
sI251
S''
sI252
S''
sI253
S'_default_decoder = JSONDecoder(encoding=None, object_hook=None,'
p135
sI254
S'                               object_pairs_hook=None)'
p136
ssg83
S"(obj=[{'anons': '\\xd0\\x93\\xd0\\xbe\\xd1\\x81\\xd1\\x83\\xd0\\xb4\\xd0\\xb0\\xd1\\x80\\xd1\\x81\\xd1\\x82\\xd0\\xb2\\xd0\\xb5\\xd0\\xbd\\xd0\\xbd\\xd1\\x8b\\xd0\\xb9 \\xd1\\x81\\xd0\\xb5\\xd0\\xba\\xd1\\x80\\xd0\\xb5\\xd1\\x82\\xd0\\xb0\\xd1\\x80\\xd1...\\xd0\\xb5\\xd0\\xbd\\xd0\\xb8\\xd0\\xb8 \\xd1\\x81\\xd0\\xb5\\xd0\\xba\\xd1\\x80\\xd0\\xb5\\xd1\\x82\\xd0\\xbd\\xd0\\xbe\\xd0\\xb9 \\xd0\\xb8\\xd0\\xbd\\xd1\\x84\\xd0\\xbe\\xd1\\x80\\xd0\\xbc\\xd0\\xb0\\xd1\\x86\\xd0\\xb8\\xd0\\xb8.', 'body': '\\xd0\\x93\\xd0\\xbe\\xd1\\x81\\xd1\\x83\\xd0\\xb4\\xd0\\xb0\\xd1\\x80\\xd1\\x81\\xd1\\x82\\xd0\\xb2\\xd0\\xb5\\xd0\\xbd\\xd0\\xbd\\xd1\\x8b\\xd0\\xb9 \\xd1\\x81\\xd0\\xb5\\xd0\\xba\\xd1\\x80\\xd0\\xb5\\xd1\\x82\\xd0\\xb0\\xd1\\x80\\xd1...\\xbb\\xd1\\x83\\xd1\\x87\\xd0\\xb5\\xd0\\xbd\\xd0\\xb8\\xd0\\xb8 \\xd1\\x83\\xd0\\xb1\\xd0\\xb5\\xd0\\xb6\\xd0\\xb8\\xd1\\x89\\xd0\\xb0 \\xd0\\xb2 \\xd0\\x98\\xd1\\x81\\xd0\\xbb\\xd0\\xb0\\xd0\\xbd\\xd0\\xb4\\xd0\\xb8\\xd0\\xb8.', 'id': 6L, 'id_category': 8L, 'id_user': 1L, 'image': 'news.image.902c489399211374.7069635f393363346438...06236643561626231663831376163643136302e6a7067.jpg', 'newsdate': '2013-06-24', 'title': '\\xd0\\xa1\\xd0\\xa8\\xd0\\x90 \\xd0\\xbf\\xd1\\x80\\xd0\\xb8\\xd0\\xb3\\xd1\\x80\\xd0\\xbe\\xd0\\xb7\\xd0\\xb8\\xd0\\xbb\\xd0\\xb8 \\xd0\\xa0\\xd0\\xbe\\xd1\\x81\\xd1\\x81\\xd0\\xb8\\xd0\\xb8 \\xd0\\xb8 \\xd0\\x9a\\xd0\\xb8...\\xd0\\xb0\\xd0\\xb7 \\xd0\\xb2\\xd1\\x8b\\xd0\\xb4\\xd0\\xb0\\xd1\\x82\\xd1\\x8c \\xd0\\xad\\xd0\\xb4\\xd0\\xb2\\xd0\\xb0\\xd1\\x80\\xd0\\xb4\\xd0\\xb0 \\xd0\\xa1\\xd0\\xbd\\xd0\\xbe\\xd1\\x83\\xd0\\xb4\\xd0\\xb5\\xd0\\xbd\\xd0\\xb0'}, {'anons': '\\xd0\\x9f\\xd1\\x80\\xd0\\xb5\\xd0\\xbc\\xd1\\x8c\\xd0\\xb5\\xd1\\x80-\\xd0\\xbc\\xd0\\xb8\\xd0\\xbd\\xd0\\xb8\\xd1\\x81\\xd1\\x82\\xd1\\x80 \\xd0\\xa0\\xd0\\xbe\\xd1\\x81\\xd1\\x81\\xd0\\xb8\\xd0\\xb8 \\xd0\\x94\\xd0\\xbc\\xd0...\\xb0\\xd1\\x82\\xd1\\x8c \\xd1\\x81\\xd0\\xbe\\xd0\\xbe\\xd0\\xb1\\xd1\\x89\\xd0\\xb5\\xd0\\xbd\\xd0\\xb8\\xd1\\x8f \\xd0\\xbf\\xd1\\x80\\xd0\\xb5\\xd1\\x81\\xd1\\x81-\\xd1\\x81\\xd0\\xbb\\xd1\\x83\\xd0\\xb6\\xd0\\xb1\\xd0\\xb5.', 'body': '\\xd0\\x92\\xd0\\xb8\\xd1\\x86\\xd0\\xb5-\\xd0\\xbf\\xd1\\x80\\xd0\\xb5\\xd0\\xbc\\xd1\\x8c\\xd0\\xb5\\xd1\\x80 \\xd0\\x94\\xd0\\xbc\\xd0\\xb8\\xd1\\x82\\xd1\\x80\\xd0\\xb8\\xd0\\xb9 \\xd0\\xa0\\xd0\\xbe\\xd0\\xb3\\xd0\\xbe\\xd0...\\xd0\\xb5\\xd1\\x80\\xd1\\x82\\xd0\\xb0 \\xd0\\xb2 \\xd0\\x9c\\xd0\\xbe\\xd1\\x81\\xd0\\xba\\xd0\\xb2\\xd0\\xb5, \\xc2\\xab\\xd0\\xb1\\xd1\\x8b\\xd0\\xb2\\xd1\\x88\\xd0\\xb5\\xd0\\xb9 \\xd0\\xb1...\\xc2\\xbb.', 'id': 7L, 'id_category': 8L, 'id_user': 1L, 'image': 'news.image.8d79ba6b833ce8a6.383537335f6269672e6a7067.jpg', 'newsdate': '2013-06-24', 'title': '\\xd0\\x92\\xd0\\xb8\\xd1\\x86\\xd0\\xb5-\\xd0\\xbf\\xd1\\x80\\xd0\\xb5\\xd0\\xbc\\xd1\\x8c\\xd0\\xb5\\xd1\\x80 \\xd0\\xa0\\xd0\\xbe\\xd0\\xb3\\xd0\\xbe\\xd0\\xb7\\xd0\\xb8\\xd0\\xbd \\xd1\\x80\\xd0\\xb5\\xd1\\x88\\xd0\\xb8\\xd0\\xbb \\xd1\\x81\\xd0\\xbd\\xd0\\xbe\\xd0\\xb2\\xd0\\xb0 \\xd0\\xb2\\xd0\\xb5\\xd1\\x81\\xd1\\x82\\xd0\\xb8 Twitter'}], skipkeys=False, ensure_ascii=True, check_circular=True, allow_nan=True, cls=<class 'json.encoder.JSONEncoder'>, indent=None, separators=None, encoding='windows1251', default=<function custom_json>, sort_keys=False, **kw={})"
p137
sg85
S'dumps'
p138
sa(dp139
g62
S'c:\\python27\\lib\\json\\encoder.py'
p140
sg64
(dp141
S'self'
p142
S'<json.encoder.JSONEncoder object>'
p143
sS'o'
S"[{'anons': '\\xd0\\x93\\xd0\\xbe\\xd1\\x81\\xd1\\x83\\xd0\\xb4\\xd0\\xb0\\xd1\\x80\\xd1\\x81\\xd1\\x82\\xd0\\xb2\\xd0\\xb5\\xd0\\xbd\\xd0\\xbd\\xd1\\x8b\\xd0\\xb9 \\xd1\\x81\\xd0\\xb5\\xd0\\xba\\xd1\\x80\\xd0\\xb5\\xd1\\x82\\xd0\\xb0\\xd1\\x80\\xd1...\\xd0\\xb5\\xd0\\xbd\\xd0\\xb8\\xd0\\xb8 \\xd1\\x81\\xd0\\xb5\\xd0\\xba\\xd1\\x80\\xd0\\xb5\\xd1\\x82\\xd0\\xbd\\xd0\\xbe\\xd0\\xb9 \\xd0\\xb8\\xd0\\xbd\\xd1\\x84\\xd0\\xbe\\xd1\\x80\\xd0\\xbc\\xd0\\xb0\\xd1\\x86\\xd0\\xb8\\xd0\\xb8.', 'body': '\\xd0\\x93\\xd0\\xbe\\xd1\\x81\\xd1\\x83\\xd0\\xb4\\xd0\\xb0\\xd1\\x80\\xd1\\x81\\xd1\\x82\\xd0\\xb2\\xd0\\xb5\\xd0\\xbd\\xd0\\xbd\\xd1\\x8b\\xd0\\xb9 \\xd1\\x81\\xd0\\xb5\\xd0\\xba\\xd1\\x80\\xd0\\xb5\\xd1\\x82\\xd0\\xb0\\xd1\\x80\\xd1...\\xbb\\xd1\\x83\\xd1\\x87\\xd0\\xb5\\xd0\\xbd\\xd0\\xb8\\xd0\\xb8 \\xd1\\x83\\xd0\\xb1\\xd0\\xb5\\xd0\\xb6\\xd0\\xb8\\xd1\\x89\\xd0\\xb0 \\xd0\\xb2 \\xd0\\x98\\xd1\\x81\\xd0\\xbb\\xd0\\xb0\\xd0\\xbd\\xd0\\xb4\\xd0\\xb8\\xd0\\xb8.', 'id': 6L, 'id_category': 8L, 'id_user': 1L, 'image': 'news.image.902c489399211374.7069635f393363346438...06236643561626231663831376163643136302e6a7067.jpg', 'newsdate': '2013-06-24', 'title': '\\xd0\\xa1\\xd0\\xa8\\xd0\\x90 \\xd0\\xbf\\xd1\\x80\\xd0\\xb8\\xd0\\xb3\\xd1\\x80\\xd0\\xbe\\xd0\\xb7\\xd0\\xb8\\xd0\\xbb\\xd0\\xb8 \\xd0\\xa0\\xd0\\xbe\\xd1\\x81\\xd1\\x81\\xd0\\xb8\\xd0\\xb8 \\xd0\\xb8 \\xd0\\x9a\\xd0\\xb8...\\xd0\\xb0\\xd0\\xb7 \\xd0\\xb2\\xd1\\x8b\\xd0\\xb4\\xd0\\xb0\\xd1\\x82\\xd1\\x8c \\xd0\\xad\\xd0\\xb4\\xd0\\xb2\\xd0\\xb0\\xd1\\x80\\xd0\\xb4\\xd0\\xb0 \\xd0\\xa1\\xd0\\xbd\\xd0\\xbe\\xd1\\x83\\xd0\\xb4\\xd0\\xb5\\xd0\\xbd\\xd0\\xb0'}, {'anons': '\\xd0\\x9f\\xd1\\x80\\xd0\\xb5\\xd0\\xbc\\xd1\\x8c\\xd0\\xb5\\xd1\\x80-\\xd0\\xbc\\xd0\\xb8\\xd0\\xbd\\xd0\\xb8\\xd1\\x81\\xd1\\x82\\xd1\\x80 \\xd0\\xa0\\xd0\\xbe\\xd1\\x81\\xd1\\x81\\xd0\\xb8\\xd0\\xb8 \\xd0\\x94\\xd0\\xbc\\xd0...\\xb0\\xd1\\x82\\xd1\\x8c \\xd1\\x81\\xd0\\xbe\\xd0\\xbe\\xd0\\xb1\\xd1\\x89\\xd0\\xb5\\xd0\\xbd\\xd0\\xb8\\xd1\\x8f \\xd0\\xbf\\xd1\\x80\\xd0\\xb5\\xd1\\x81\\xd1\\x81-\\xd1\\x81\\xd0\\xbb\\xd1\\x83\\xd0\\xb6\\xd0\\xb1\\xd0\\xb5.', 'body': '\\xd0\\x92\\xd0\\xb8\\xd1\\x86\\xd0\\xb5-\\xd0\\xbf\\xd1\\x80\\xd0\\xb5\\xd0\\xbc\\xd1\\x8c\\xd0\\xb5\\xd1\\x80 \\xd0\\x94\\xd0\\xbc\\xd0\\xb8\\xd1\\x82\\xd1\\x80\\xd0\\xb8\\xd0\\xb9 \\xd0\\xa0\\xd0\\xbe\\xd0\\xb3\\xd0\\xbe\\xd0...\\xd0\\xb5\\xd1\\x80\\xd1\\x82\\xd0\\xb0 \\xd0\\xb2 \\xd0\\x9c\\xd0\\xbe\\xd1\\x81\\xd0\\xba\\xd0\\xb2\\xd0\\xb5, \\xc2\\xab\\xd0\\xb1\\xd1\\x8b\\xd0\\xb2\\xd1\\x88\\xd0\\xb5\\xd0\\xb9 \\xd0\\xb1...\\xc2\\xbb.', 'id': 7L, 'id_category': 8L, 'id_user': 1L, 'image': 'news.image.8d79ba6b833ce8a6.383537335f6269672e6a7067.jpg', 'newsdate': '2013-06-24', 'title': '\\xd0\\x92\\xd0\\xb8\\xd1\\x86\\xd0\\xb5-\\xd0\\xbf\\xd1\\x80\\xd0\\xb5\\xd0\\xbc\\xd1\\x8c\\xd0\\xb5\\xd1\\x80 \\xd0\\xa0\\xd0\\xbe\\xd0\\xb3\\xd0\\xbe\\xd0\\xb7\\xd0\\xb8\\xd0\\xbd \\xd1\\x80\\xd0\\xb5\\xd1\\x88\\xd0\\xb8\\xd0\\xbb \\xd1\\x81\\xd0\\xbd\\xd0\\xbe\\xd0\\xb2\\xd0\\xb0 \\xd0\\xb2\\xd0\\xb5\\xd1\\x81\\xd1\\x82\\xd0\\xb8 Twitter'}]"
p144
sS'self.iterencode'
p145
S'<bound method JSONEncoder.iterencode of <json.encoder.JSONEncoder object>>'
p146
sS'_one_shot'
p147
g127
sS'chunks'
p148
g127
sS'builtinTrue'
p149
S'True'
p150
ssg70
I207
sg71
(dp151
I202
S'            else:'
p152
sI203
S'                return encode_basestring(o)'
p153
sI204
S"        # This doesn't pass the iterator directly to ''.join() because the"
p154
sI205
S"        # exceptions aren't as detailed.  The list call should be roughly"
p155
sI206
S"        # equivalent to the PySequence_Fast that ''.join() would do."
p156
sI207
S'        chunks = self.iterencode(o, _one_shot=True)'
p157
sI208
S'        if not isinstance(chunks, (list, tuple)):'
p158
sI209
S'            chunks = list(chunks)'
p159
sI210
S"        return ''.join(chunks)"
p160
sI211
S''
ssg83
S"(self=<json.encoder.JSONEncoder object>, o=[{'anons': '\\xd0\\x93\\xd0\\xbe\\xd1\\x81\\xd1\\x83\\xd0\\xb4\\xd0\\xb0\\xd1\\x80\\xd1\\x81\\xd1\\x82\\xd0\\xb2\\xd0\\xb5\\xd0\\xbd\\xd0\\xbd\\xd1\\x8b\\xd0\\xb9 \\xd1\\x81\\xd0\\xb5\\xd0\\xba\\xd1\\x80\\xd0\\xb5\\xd1\\x82\\xd0\\xb0\\xd1\\x80\\xd1...\\xd0\\xb5\\xd0\\xbd\\xd0\\xb8\\xd0\\xb8 \\xd1\\x81\\xd0\\xb5\\xd0\\xba\\xd1\\x80\\xd0\\xb5\\xd1\\x82\\xd0\\xbd\\xd0\\xbe\\xd0\\xb9 \\xd0\\xb8\\xd0\\xbd\\xd1\\x84\\xd0\\xbe\\xd1\\x80\\xd0\\xbc\\xd0\\xb0\\xd1\\x86\\xd0\\xb8\\xd0\\xb8.', 'body': '\\xd0\\x93\\xd0\\xbe\\xd1\\x81\\xd1\\x83\\xd0\\xb4\\xd0\\xb0\\xd1\\x80\\xd1\\x81\\xd1\\x82\\xd0\\xb2\\xd0\\xb5\\xd0\\xbd\\xd0\\xbd\\xd1\\x8b\\xd0\\xb9 \\xd1\\x81\\xd0\\xb5\\xd0\\xba\\xd1\\x80\\xd0\\xb5\\xd1\\x82\\xd0\\xb0\\xd1\\x80\\xd1...\\xbb\\xd1\\x83\\xd1\\x87\\xd0\\xb5\\xd0\\xbd\\xd0\\xb8\\xd0\\xb8 \\xd1\\x83\\xd0\\xb1\\xd0\\xb5\\xd0\\xb6\\xd0\\xb8\\xd1\\x89\\xd0\\xb0 \\xd0\\xb2 \\xd0\\x98\\xd1\\x81\\xd0\\xbb\\xd0\\xb0\\xd0\\xbd\\xd0\\xb4\\xd0\\xb8\\xd0\\xb8.', 'id': 6L, 'id_category': 8L, 'id_user': 1L, 'image': 'news.image.902c489399211374.7069635f393363346438...06236643561626231663831376163643136302e6a7067.jpg', 'newsdate': '2013-06-24', 'title': '\\xd0\\xa1\\xd0\\xa8\\xd0\\x90 \\xd0\\xbf\\xd1\\x80\\xd0\\xb8\\xd0\\xb3\\xd1\\x80\\xd0\\xbe\\xd0\\xb7\\xd0\\xb8\\xd0\\xbb\\xd0\\xb8 \\xd0\\xa0\\xd0\\xbe\\xd1\\x81\\xd1\\x81\\xd0\\xb8\\xd0\\xb8 \\xd0\\xb8 \\xd0\\x9a\\xd0\\xb8...\\xd0\\xb0\\xd0\\xb7 \\xd0\\xb2\\xd1\\x8b\\xd0\\xb4\\xd0\\xb0\\xd1\\x82\\xd1\\x8c \\xd0\\xad\\xd0\\xb4\\xd0\\xb2\\xd0\\xb0\\xd1\\x80\\xd0\\xb4\\xd0\\xb0 \\xd0\\xa1\\xd0\\xbd\\xd0\\xbe\\xd1\\x83\\xd0\\xb4\\xd0\\xb5\\xd0\\xbd\\xd0\\xb0'}, {'anons': '\\xd0\\x9f\\xd1\\x80\\xd0\\xb5\\xd0\\xbc\\xd1\\x8c\\xd0\\xb5\\xd1\\x80-\\xd0\\xbc\\xd0\\xb8\\xd0\\xbd\\xd0\\xb8\\xd1\\x81\\xd1\\x82\\xd1\\x80 \\xd0\\xa0\\xd0\\xbe\\xd1\\x81\\xd1\\x81\\xd0\\xb8\\xd0\\xb8 \\xd0\\x94\\xd0\\xbc\\xd0...\\xb0\\xd1\\x82\\xd1\\x8c \\xd1\\x81\\xd0\\xbe\\xd0\\xbe\\xd0\\xb1\\xd1\\x89\\xd0\\xb5\\xd0\\xbd\\xd0\\xb8\\xd1\\x8f \\xd0\\xbf\\xd1\\x80\\xd0\\xb5\\xd1\\x81\\xd1\\x81-\\xd1\\x81\\xd0\\xbb\\xd1\\x83\\xd0\\xb6\\xd0\\xb1\\xd0\\xb5.', 'body': '\\xd0\\x92\\xd0\\xb8\\xd1\\x86\\xd0\\xb5-\\xd0\\xbf\\xd1\\x80\\xd0\\xb5\\xd0\\xbc\\xd1\\x8c\\xd0\\xb5\\xd1\\x80 \\xd0\\x94\\xd0\\xbc\\xd0\\xb8\\xd1\\x82\\xd1\\x80\\xd0\\xb8\\xd0\\xb9 \\xd0\\xa0\\xd0\\xbe\\xd0\\xb3\\xd0\\xbe\\xd0...\\xd0\\xb5\\xd1\\x80\\xd1\\x82\\xd0\\xb0 \\xd0\\xb2 \\xd0\\x9c\\xd0\\xbe\\xd1\\x81\\xd0\\xba\\xd0\\xb2\\xd0\\xb5, \\xc2\\xab\\xd0\\xb1\\xd1\\x8b\\xd0\\xb2\\xd1\\x88\\xd0\\xb5\\xd0\\xb9 \\xd0\\xb1...\\xc2\\xbb.', 'id': 7L, 'id_category': 8L, 'id_user': 1L, 'image': 'news.image.8d79ba6b833ce8a6.383537335f6269672e6a7067.jpg', 'newsdate': '2013-06-24', 'title': '\\xd0\\x92\\xd0\\xb8\\xd1\\x86\\xd0\\xb5-\\xd0\\xbf\\xd1\\x80\\xd0\\xb5\\xd0\\xbc\\xd1\\x8c\\xd0\\xb5\\xd1\\x80 \\xd0\\xa0\\xd0\\xbe\\xd0\\xb3\\xd0\\xbe\\xd0\\xb7\\xd0\\xb8\\xd0\\xbd \\xd1\\x80\\xd0\\xb5\\xd1\\x88\\xd0\\xb8\\xd0\\xbb \\xd1\\x81\\xd0\\xbd\\xd0\\xbe\\xd0\\xb2\\xd0\\xb0 \\xd0\\xb2\\xd0\\xb5\\xd1\\x81\\xd1\\x82\\xd0\\xb8 Twitter'}])"
p161
sg85
S'encode'
p162
sa(dp163
g62
S'c:\\python27\\lib\\json\\encoder.py'
p164
sg64
(dp165
S'_iterencode'
p166
S'<_json.Encoder object>'
p167
sS'o'
S"[{'anons': '\\xd0\\x93\\xd0\\xbe\\xd1\\x81\\xd1\\x83\\xd0\\xb4\\xd0\\xb0\\xd1\\x80\\xd1\\x81\\xd1\\x82\\xd0\\xb2\\xd0\\xb5\\xd0\\xbd\\xd0\\xbd\\xd1\\x8b\\xd0\\xb9 \\xd1\\x81\\xd0\\xb5\\xd0\\xba\\xd1\\x80\\xd0\\xb5\\xd1\\x82\\xd0\\xb0\\xd1\\x80\\xd1...\\xd0\\xb5\\xd0\\xbd\\xd0\\xb8\\xd0\\xb8 \\xd1\\x81\\xd0\\xb5\\xd0\\xba\\xd1\\x80\\xd0\\xb5\\xd1\\x82\\xd0\\xbd\\xd0\\xbe\\xd0\\xb9 \\xd0\\xb8\\xd0\\xbd\\xd1\\x84\\xd0\\xbe\\xd1\\x80\\xd0\\xbc\\xd0\\xb0\\xd1\\x86\\xd0\\xb8\\xd0\\xb8.', 'body': '\\xd0\\x93\\xd0\\xbe\\xd1\\x81\\xd1\\x83\\xd0\\xb4\\xd0\\xb0\\xd1\\x80\\xd1\\x81\\xd1\\x82\\xd0\\xb2\\xd0\\xb5\\xd0\\xbd\\xd0\\xbd\\xd1\\x8b\\xd0\\xb9 \\xd1\\x81\\xd0\\xb5\\xd0\\xba\\xd1\\x80\\xd0\\xb5\\xd1\\x82\\xd0\\xb0\\xd1\\x80\\xd1...\\xbb\\xd1\\x83\\xd1\\x87\\xd0\\xb5\\xd0\\xbd\\xd0\\xb8\\xd0\\xb8 \\xd1\\x83\\xd0\\xb1\\xd0\\xb5\\xd0\\xb6\\xd0\\xb8\\xd1\\x89\\xd0\\xb0 \\xd0\\xb2 \\xd0\\x98\\xd1\\x81\\xd0\\xbb\\xd0\\xb0\\xd0\\xbd\\xd0\\xb4\\xd0\\xb8\\xd0\\xb8.', 'id': 6L, 'id_category': 8L, 'id_user': 1L, 'image': 'news.image.902c489399211374.7069635f393363346438...06236643561626231663831376163643136302e6a7067.jpg', 'newsdate': '2013-06-24', 'title': '\\xd0\\xa1\\xd0\\xa8\\xd0\\x90 \\xd0\\xbf\\xd1\\x80\\xd0\\xb8\\xd0\\xb3\\xd1\\x80\\xd0\\xbe\\xd0\\xb7\\xd0\\xb8\\xd0\\xbb\\xd0\\xb8 \\xd0\\xa0\\xd0\\xbe\\xd1\\x81\\xd1\\x81\\xd0\\xb8\\xd0\\xb8 \\xd0\\xb8 \\xd0\\x9a\\xd0\\xb8...\\xd0\\xb0\\xd0\\xb7 \\xd0\\xb2\\xd1\\x8b\\xd0\\xb4\\xd0\\xb0\\xd1\\x82\\xd1\\x8c \\xd0\\xad\\xd0\\xb4\\xd0\\xb2\\xd0\\xb0\\xd1\\x80\\xd0\\xb4\\xd0\\xb0 \\xd0\\xa1\\xd0\\xbd\\xd0\\xbe\\xd1\\x83\\xd0\\xb4\\xd0\\xb5\\xd0\\xbd\\xd0\\xb0'}, {'anons': '\\xd0\\x9f\\xd1\\x80\\xd0\\xb5\\xd0\\xbc\\xd1\\x8c\\xd0\\xb5\\xd1\\x80-\\xd0\\xbc\\xd0\\xb8\\xd0\\xbd\\xd0\\xb8\\xd1\\x81\\xd1\\x82\\xd1\\x80 \\xd0\\xa0\\xd0\\xbe\\xd1\\x81\\xd1\\x81\\xd0\\xb8\\xd0\\xb8 \\xd0\\x94\\xd0\\xbc\\xd0...\\xb0\\xd1\\x82\\xd1\\x8c \\xd1\\x81\\xd0\\xbe\\xd0\\xbe\\xd0\\xb1\\xd1\\x89\\xd0\\xb5\\xd0\\xbd\\xd0\\xb8\\xd1\\x8f \\xd0\\xbf\\xd1\\x80\\xd0\\xb5\\xd1\\x81\\xd1\\x81-\\xd1\\x81\\xd0\\xbb\\xd1\\x83\\xd0\\xb6\\xd0\\xb1\\xd0\\xb5.', 'body': '\\xd0\\x92\\xd0\\xb8\\xd1\\x86\\xd0\\xb5-\\xd0\\xbf\\xd1\\x80\\xd0\\xb5\\xd0\\xbc\\xd1\\x8c\\xd0\\xb5\\xd1\\x80 \\xd0\\x94\\xd0\\xbc\\xd0\\xb8\\xd1\\x82\\xd1\\x80\\xd0\\xb8\\xd0\\xb9 \\xd0\\xa0\\xd0\\xbe\\xd0\\xb3\\xd0\\xbe\\xd0...\\xd0\\xb5\\xd1\\x80\\xd1\\x82\\xd0\\xb0 \\xd0\\xb2 \\xd0\\x9c\\xd0\\xbe\\xd1\\x81\\xd0\\xba\\xd0\\xb2\\xd0\\xb5, \\xc2\\xab\\xd0\\xb1\\xd1\\x8b\\xd0\\xb2\\xd1\\x88\\xd0\\xb5\\xd0\\xb9 \\xd0\\xb1...\\xc2\\xbb.', 'id': 7L, 'id_category': 8L, 'id_user': 1L, 'image': 'news.image.8d79ba6b833ce8a6.383537335f6269672e6a7067.jpg', 'newsdate': '2013-06-24', 'title': '\\xd0\\x92\\xd0\\xb8\\xd1\\x86\\xd0\\xb5-\\xd0\\xbf\\xd1\\x80\\xd0\\xb5\\xd0\\xbc\\xd1\\x8c\\xd0\\xb5\\xd1\\x80 \\xd0\\xa0\\xd0\\xbe\\xd0\\xb3\\xd0\\xbe\\xd0\\xb7\\xd0\\xb8\\xd0\\xbd \\xd1\\x80\\xd0\\xb5\\xd1\\x88\\xd0\\xb8\\xd0\\xbb \\xd1\\x81\\xd0\\xbd\\xd0\\xbe\\xd0\\xb2\\xd0\\xb0 \\xd0\\xb2\\xd0\\xb5\\xd1\\x81\\xd1\\x82\\xd0\\xb8 Twitter'}]"
p168
ssg70
I270
sg71
(dp169
I265
S'        else:'
p170
sI266
S'            _iterencode = _make_iterencode('
p171
sI267
S'                markers, self.default, _encoder, self.indent, floatstr,'
p172
sI268
S'                self.key_separator, self.item_separator, self.sort_keys,'
p173
sI269
S'                self.skipkeys, _one_shot)'
p174
sI270
S'        return _iterencode(o, 0)'
p175
sI271
S''
sI272
S'def _make_iterencode(markers, _default, _encoder, _indent, _floatstr,'
p176
sI273
S'        _key_separator, _item_separator, _sort_keys, _skipkeys, _one_shot,'
p177
sI274
S'        ## HACK: hand-optimized bytecode; turn globals into locals'
p178
ssg83
S"(self=<json.encoder.JSONEncoder object>, o=[{'anons': '\\xd0\\x93\\xd0\\xbe\\xd1\\x81\\xd1\\x83\\xd0\\xb4\\xd0\\xb0\\xd1\\x80\\xd1\\x81\\xd1\\x82\\xd0\\xb2\\xd0\\xb5\\xd0\\xbd\\xd0\\xbd\\xd1\\x8b\\xd0\\xb9 \\xd1\\x81\\xd0\\xb5\\xd0\\xba\\xd1\\x80\\xd0\\xb5\\xd1\\x82\\xd0\\xb0\\xd1\\x80\\xd1...\\xd0\\xb5\\xd0\\xbd\\xd0\\xb8\\xd0\\xb8 \\xd1\\x81\\xd0\\xb5\\xd0\\xba\\xd1\\x80\\xd0\\xb5\\xd1\\x82\\xd0\\xbd\\xd0\\xbe\\xd0\\xb9 \\xd0\\xb8\\xd0\\xbd\\xd1\\x84\\xd0\\xbe\\xd1\\x80\\xd0\\xbc\\xd0\\xb0\\xd1\\x86\\xd0\\xb8\\xd0\\xb8.', 'body': '\\xd0\\x93\\xd0\\xbe\\xd1\\x81\\xd1\\x83\\xd0\\xb4\\xd0\\xb0\\xd1\\x80\\xd1\\x81\\xd1\\x82\\xd0\\xb2\\xd0\\xb5\\xd0\\xbd\\xd0\\xbd\\xd1\\x8b\\xd0\\xb9 \\xd1\\x81\\xd0\\xb5\\xd0\\xba\\xd1\\x80\\xd0\\xb5\\xd1\\x82\\xd0\\xb0\\xd1\\x80\\xd1...\\xbb\\xd1\\x83\\xd1\\x87\\xd0\\xb5\\xd0\\xbd\\xd0\\xb8\\xd0\\xb8 \\xd1\\x83\\xd0\\xb1\\xd0\\xb5\\xd0\\xb6\\xd0\\xb8\\xd1\\x89\\xd0\\xb0 \\xd0\\xb2 \\xd0\\x98\\xd1\\x81\\xd0\\xbb\\xd0\\xb0\\xd0\\xbd\\xd0\\xb4\\xd0\\xb8\\xd0\\xb8.', 'id': 6L, 'id_category': 8L, 'id_user': 1L, 'image': 'news.image.902c489399211374.7069635f393363346438...06236643561626231663831376163643136302e6a7067.jpg', 'newsdate': '2013-06-24', 'title': '\\xd0\\xa1\\xd0\\xa8\\xd0\\x90 \\xd0\\xbf\\xd1\\x80\\xd0\\xb8\\xd0\\xb3\\xd1\\x80\\xd0\\xbe\\xd0\\xb7\\xd0\\xb8\\xd0\\xbb\\xd0\\xb8 \\xd0\\xa0\\xd0\\xbe\\xd1\\x81\\xd1\\x81\\xd0\\xb8\\xd0\\xb8 \\xd0\\xb8 \\xd0\\x9a\\xd0\\xb8...\\xd0\\xb0\\xd0\\xb7 \\xd0\\xb2\\xd1\\x8b\\xd0\\xb4\\xd0\\xb0\\xd1\\x82\\xd1\\x8c \\xd0\\xad\\xd0\\xb4\\xd0\\xb2\\xd0\\xb0\\xd1\\x80\\xd0\\xb4\\xd0\\xb0 \\xd0\\xa1\\xd0\\xbd\\xd0\\xbe\\xd1\\x83\\xd0\\xb4\\xd0\\xb5\\xd0\\xbd\\xd0\\xb0'}, {'anons': '\\xd0\\x9f\\xd1\\x80\\xd0\\xb5\\xd0\\xbc\\xd1\\x8c\\xd0\\xb5\\xd1\\x80-\\xd0\\xbc\\xd0\\xb8\\xd0\\xbd\\xd0\\xb8\\xd1\\x81\\xd1\\x82\\xd1\\x80 \\xd0\\xa0\\xd0\\xbe\\xd1\\x81\\xd1\\x81\\xd0\\xb8\\xd0\\xb8 \\xd0\\x94\\xd0\\xbc\\xd0...\\xb0\\xd1\\x82\\xd1\\x8c \\xd1\\x81\\xd0\\xbe\\xd0\\xbe\\xd0\\xb1\\xd1\\x89\\xd0\\xb5\\xd0\\xbd\\xd0\\xb8\\xd1\\x8f \\xd0\\xbf\\xd1\\x80\\xd0\\xb5\\xd1\\x81\\xd1\\x81-\\xd1\\x81\\xd0\\xbb\\xd1\\x83\\xd0\\xb6\\xd0\\xb1\\xd0\\xb5.', 'body': '\\xd0\\x92\\xd0\\xb8\\xd1\\x86\\xd0\\xb5-\\xd0\\xbf\\xd1\\x80\\xd0\\xb5\\xd0\\xbc\\xd1\\x8c\\xd0\\xb5\\xd1\\x80 \\xd0\\x94\\xd0\\xbc\\xd0\\xb8\\xd1\\x82\\xd1\\x80\\xd0\\xb8\\xd0\\xb9 \\xd0\\xa0\\xd0\\xbe\\xd0\\xb3\\xd0\\xbe\\xd0...\\xd0\\xb5\\xd1\\x80\\xd1\\x82\\xd0\\xb0 \\xd0\\xb2 \\xd0\\x9c\\xd0\\xbe\\xd1\\x81\\xd0\\xba\\xd0\\xb2\\xd0\\xb5, \\xc2\\xab\\xd0\\xb1\\xd1\\x8b\\xd0\\xb2\\xd1\\x88\\xd0\\xb5\\xd0\\xb9 \\xd0\\xb1...\\xc2\\xbb.', 'id': 7L, 'id_category': 8L, 'id_user': 1L, 'image': 'news.image.8d79ba6b833ce8a6.383537335f6269672e6a7067.jpg', 'newsdate': '2013-06-24', 'title': '\\xd0\\x92\\xd0\\xb8\\xd1\\x86\\xd0\\xb5-\\xd0\\xbf\\xd1\\x80\\xd0\\xb5\\xd0\\xbc\\xd1\\x8c\\xd0\\xb5\\xd1\\x80 \\xd0\\xa0\\xd0\\xbe\\xd0\\xb3\\xd0\\xbe\\xd0\\xb7\\xd0\\xb8\\xd0\\xbd \\xd1\\x80\\xd0\\xb5\\xd1\\x88\\xd0\\xb8\\xd0\\xbb \\xd1\\x81\\xd0\\xbd\\xd0\\xbe\\xd0\\xb2\\xd0\\xb0 \\xd0\\xb2\\xd0\\xb5\\xd1\\x81\\xd1\\x82\\xd0\\xb8 Twitter'}], _one_shot=True)"
p179
sg85
S'iterencode'
p180
sa(dp181
g62
S'c:\\python27\\lib\\json\\encoder.py'
p182
sg64
(dp183
S'o.decode'
p184
S'<built-in method decode of str object>'
p185
sS'o'
S"'body'"
p186
sS'_encoding'
p187
S"'windows1251'"
p188
ssg70
I233
sg71
(dp189
I228
S'        else:'
p190
sI229
S'            _encoder = encode_basestring'
p191
sI230
S"        if self.encoding != 'utf-8':"
p192
sI231
S'            def _encoder(o, _orig_encoder=_encoder, _encoding=self.encoding):'
p193
sI232
S'                if isinstance(o, str):'
p194
sI233
S'                    o = o.decode(_encoding)'
p195
sI234
S'                return _orig_encoder(o)'
p196
sI235
S''
sI236
S'        def floatstr(o, allow_nan=self.allow_nan,'
p197
sI237
S'                _repr=FLOAT_REPR, _inf=INFINITY, _neginf=-INFINITY):'
p198
ssg83
S"(o='body', _orig_encoder=<built-in function encode_basestring_ascii>, _encoding='windows1251')"
p199
sg85
S'_encoder'
p200
sasS'pyver'
p201
S'Python 2.7.5: c:\\python27\\python.exe (prefix: c:\\python27)'
p202
sS'session'
p203
g57
(S's\r\t\x00\x00<div><table><tr><td style="font-weight:bold;vertical-align:top">auth</td><td valign="top">:</td><td><div><table><tr><td style="font-weight:bold;vertical-align:top">expiration</td><td valign="top">:</td><td><div>3600</div></td></tr><tr><td style="font-weight:bold;vertical-align:top">hmac_key</td><td valign="top">:</td><td><div>10267843-df97-495b-8e6b-b569c94255c4</div></td></tr><tr><td style="font-weight:bold;vertical-align:top">last_visit</td><td valign="top">:</td><td><div>datetime.datetime(2013, 6, 24, 20, 9, 3, 873000)</div></td></tr><tr><td style="font-weight:bold;vertical-align:top">remember</td><td valign="top">:</td><td><div>False</div></td></tr><tr><td style="font-weight:bold;vertical-align:top">user</td><td valign="top">:</td><td><div><table><tr><td style="font-weight:bold;vertical-align:top">email</td><td valign="top">:</td><td><div>msgoloborodov@gmail.com</div></td></tr><tr><td style="font-weight:bold;vertical-align:top">first_name</td><td valign="top">:</td><td><div>\xd0\x9c\xd0\xb8\xd1\x85\xd0\xb0\xd0\xb8\xd0\xbb</div></td></tr><tr><td style="font-weight:bold;vertical-align:top">id</td><td valign="top">:</td><td><div>1L</div></td></tr><tr><td style="font-weight:bold;vertical-align:top">last_name</td><td valign="top">:</td><td><div>\xd0\x93\xd0\xbe\xd0\xbb\xd0\xbe\xd0\xb1\xd0\xbe\xd1\x80\xd0\xbe\xd0\xb4\xd0\xbe\xd0\xb2</div></td></tr><tr><td style="font-weight:bold;vertical-align:top">registration_id</td><td valign="top">:</td><td><div>None</div></td></tr><tr><td style="font-weight:bold;vertical-align:top">registration_key</td><td valign="top">:</td><td><div>None</div></td></tr><tr><td style="font-weight:bold;vertical-align:top">reset_password_key</td><td valign="top">:</td><td><div>None</div></td></tr></table></div></td></tr><tr><td style="font-weight:bold;vertical-align:top">user_groups</td><td valign="top">:</td><td><div><table><tr><td style="font-weight:bold;vertical-align:top">1</td><td valign="top">:</td><td><div>user_1</div></td></tr></table></div></td></tr></table></div></td></tr><tr><td style="font-weight:bold;vertical-align:top">flash</td><td valign="top">:</td><td><div>None</div></td></tr><tr><td style="font-weight:bold;vertical-align:top">last_orderby</td><td valign="top">:</td><td><div>None</div></td></tr><tr><td style="font-weight:bold;vertical-align:top">last_query</td><td valign="top">:</td><td><div>db.auth_user.id&gt;0</div></td></tr></table></div>'
tRp204
sS'etype'
p205
S"<type 'exceptions.LookupError'>"
p206
sS'date'
p207
S'Mon Jun 24 20:14:48 2013'
p208
sS'response'
p209
g57
(S's+\x19\x00\x00<div><table><tr><td style="font-weight:bold;vertical-align:top">body</td><td valign="top">:</td><td><div>&lt;cStringIO.StringO object at 0x089E2320&gt;</div></td></tr><tr><td style="font-weight:bold;vertical-align:top">cookies</td><td valign="top">:</td><td><div><table><tr><td style="font-weight:bold;vertical-align:top">session_id_news</td><td valign="top">:</td><td><div>127.0.0.1-18f5d805-0ac0-43dd-8116-c208695abdf6<table><tr><td style="font-weight:bold;vertical-align:top">comment</td><td valign="top">:</td><td><div></div></td></tr><tr><td style="font-weight:bold;vertical-align:top">domain</td><td valign="top">:</td><td><div></div></td></tr><tr><td style="font-weight:bold;vertical-align:top">expires</td><td valign="top">:</td><td><div></div></td></tr><tr><td style="font-weight:bold;vertical-align:top">httponly</td><td valign="top">:</td><td><div></div></td></tr><tr><td style="font-weight:bold;vertical-align:top">max-age</td><td valign="top">:</td><td><div></div></td></tr><tr><td style="font-weight:bold;vertical-align:top">path</td><td valign="top">:</td><td><div>/</div></td></tr><tr><td style="font-weight:bold;vertical-align:top">secure</td><td valign="top">:</td><td><div></div></td></tr><tr><td style="font-weight:bold;vertical-align:top">version</td><td valign="top">:</td><td><div></div></td></tr></table></div></td></tr></table></div></td></tr><tr><td style="font-weight:bold;vertical-align:top">delimiters</td><td valign="top">:</td><td><div><table><tr><td><div>{{</div></td></tr><tr><td><div>}}</div></td></tr></table></div></td></tr><tr><td style="font-weight:bold;vertical-align:top">files</td><td valign="top">:</td><td><div><table></table></div></td></tr><tr><td style="font-weight:bold;vertical-align:top">flash</td><td valign="top">:</td><td><div></div></td></tr><tr><td style="font-weight:bold;vertical-align:top">generic_patterns</td><td valign="top">:</td><td><div><table></table></div></td></tr><tr><td style="font-weight:bold;vertical-align:top">google_analytics_id</td><td valign="top">:</td><td><div>None</div></td></tr><tr><td style="font-weight:bold;vertical-align:top">headers</td><td valign="top">:</td><td><div><table><tr><td style="font-weight:bold;vertical-align:top">X-Powered-By</td><td valign="top">:</td><td><div>web2py</div></td></tr></table></div></td></tr><tr><td style="font-weight:bold;vertical-align:top">menu</td><td valign="top">:</td><td><div><table><tr><td><div><table><tr><td><div>\xd0\x9d\xd0\xbe\xd0\xb2\xd0\xbe\xd1\x81\xd1\x82\xd0\xb8 \xd0\xbf\xd0\xbe \xd0\xba\xd0\xb0\xd1\x82\xd0\xb5\xd0\xb3\xd0\xbe\xd1\x80\xd0\xb8\xd1\x8f\xd0\xbc</div></td></tr><tr><td><div>False</div></td></tr><tr><td><div>/news/default/index.json</div></td></tr><tr><td><div><table></table></div></td></tr></table></div></td></tr><tr><td><div><table><tr><td><div>\xd0\x92\xd1\x81\xd0\xb5 \xd0\xbd\xd0\xbe\xd0\xb2\xd0\xbe\xd1\x81\xd1\x82\xd0\xb8</div></td></tr><tr><td><div>False</div></td></tr><tr><td><div>/news/default/show_all.json</div></td></tr><tr><td><div><table></table></div></td></tr></table></div></td></tr><tr><td><div><table><tr><td><div><span class="highlighted">\xd0\x90\xd0\xb4\xd0\xbc\xd0\xb8\xd0\xbd\xd0\xb8\xd1\x81\xd1\x82\xd1\x80\xd0\xb8\xd1\x80\xd0\xbe\xd0\xb2\xd0\xb0\xd0\xbd\xd0\xb8\xd0\xb5</span></div></td></tr><tr><td><div>False</div></td></tr><tr><td><div></div></td></tr><tr><td><div><table><tr><td><div><table><tr><td><div>\xd0\x94\xd0\xbe\xd0\xb1\xd0\xb0\xd0\xb2\xd0\xb8\xd1\x82\xd1\x8c \xd0\xba\xd0\xb0\xd1\x82\xd0\xb5\xd0\xb3\xd0\xbe\xd1\x80\xd0\xb8\xd1\x8e</div></td></tr><tr><td><div>False</div></td></tr><tr><td><div>/news/default/category_add.json</div></td></tr></table></div></td></tr><tr><td><div><table><tr><td><div>\xd0\x94\xd0\xbe\xd0\xb1\xd0\xb0\xd0\xb2\xd0\xb8\xd1\x82\xd1\x8c \xd0\xbd\xd0\xbe\xd0\xb2\xd0\xbe\xd1\x81\xd1\x82\xd1\x8c</div></td></tr><tr><td><div>False</div></td></tr><tr><td><div>/news/default/add.json</div></td></tr></table></div></td></tr></table></div></td></tr></table></div></td></tr></table></div></td></tr><tr><td style="font-weight:bold;vertical-align:top">meta</td><td valign="top">:</td><td><div><table><tr><td style="font-weight:bold;vertical-align:top">author</td><td valign="top">:</td><td><div>Your Name &lt;you@example.com&gt;</div></td></tr><tr><td style="font-weight:bold;vertical-align:top">description</td><td valign="top">:</td><td><div>a cool new app</div></td></tr><tr><td style="font-weight:bold;vertical-align:top">generator</td><td valign="top">:</td><td><div>Web2py Web Framework</div></td></tr><tr><td style="font-weight:bold;vertical-align:top">keywords</td><td valign="top">:</td><td><div>web2py, python, framework</div></td></tr></table></div></td></tr><tr><td style="font-weight:bold;vertical-align:top">models_to_run</td><td valign="top">:</td><td><div><table><tr><td><div>^\\w+\\.py$</div></td></tr><tr><td><div>^default/\\w+\\.py$</div></td></tr><tr><td><div>^default/index/\\w+\\.py$</div></td></tr></table></div></td></tr><tr><td style="font-weight:bold;vertical-align:top">postprocessing</td><td valign="top">:</td><td><div><table></table></div></td></tr><tr><td style="font-weight:bold;vertical-align:top">session_cookie_expires</td><td valign="top">:</td><td><div>None</div></td></tr><tr><td style="font-weight:bold;vertical-align:top">session_data_name</td><td valign="top">:</td><td><div>session_data_news</div></td></tr><tr><td style="font-weight:bold;vertical-align:top">session_file</td><td valign="top">:</td><td><div>&lt;open file &#x27;D:\\\\work\\\\web2py_src\\\\web2py\\\\applications\\\\news\\\\sessions\\\\127.0.0.1-18f5d805-0ac0-43dd-8116-c208695abdf6&#x27;, mode &#x27;rb+&#x27; at 0x08933E38&gt;</div></td></tr><tr><td style="font-weight:bold;vertical-align:top">session_filename</td><td valign="top">:</td><td><div>D:\\work\\web2py_src\\web2py\\applications\\news\\sessions\\127.0.0.1-18f5d805-0ac0-43dd-8116-c208695abdf6</div></td></tr><tr><td style="font-weight:bold;vertical-align:top">session_id</td><td valign="top">:</td><td><div>127.0.0.1-18f5d805-0ac0-43dd-8116-c208695abdf6</div></td></tr><tr><td style="font-weight:bold;vertical-align:top">session_id_name</td><td valign="top">:</td><td><div>session_id_news</div></td></tr><tr><td style="font-weight:bold;vertical-align:top">session_locked</td><td valign="top">:</td><td><div>True</div></td></tr><tr><td style="font-weight:bold;vertical-align:top">session_new</td><td valign="top">:</td><td><div>False</div></td></tr><tr><td style="font-weight:bold;vertical-align:top">session_storage_type</td><td valign="top">:</td><td><div>file</div></td></tr><tr><td style="font-weight:bold;vertical-align:top">status</td><td valign="top">:</td><td><div>200</div></td></tr><tr><td style="font-weight:bold;vertical-align:top">title</td><td valign="top">:</td><td><div>\xd0\x9d\xd0\xbe\xd0\xb2\xd0\xbe\xd1\x81\xd1\x82\xd0\xb8</div></td></tr><tr><td style="font-weight:bold;vertical-align:top">view</td><td valign="top">:</td><td><div>default/index.json</div></td></tr></table></div>'
tRp210
sS'locals'
p211
(dp212
S'_orig_encoder'
p213
S'<built-in function encode_basestring_ascii>'
p214
sS'_encoding'
p215
S"'windows1251'"
p216
sS'o'
S"'body'"
p217
sssS'traceback'
p218
S'Traceback (most recent call last):\n  File "D:\\work\\web2py_src\\web2py\\gluon\\restricted.py", line 212, in restricted\n    exec ccode in environment\n  File "D:\\work\\web2py_src\\web2py\\applications\\news\\views\\default/index.json", line 7, in <module>\n  File "D:\\work\\web2py_src\\web2py\\gluon\\serializers.py", line 122, in json\n    default=default,encoding=encoding).replace(ur\'\\u2028\',\n  File "c:\\python27\\lib\\json\\__init__.py", line 250, in dumps\n    sort_keys=sort_keys, **kw).encode(obj)\n  File "c:\\python27\\lib\\json\\encoder.py", line 207, in encode\n    chunks = self.iterencode(o, _one_shot=True)\n  File "c:\\python27\\lib\\json\\encoder.py", line 270, in iterencode\n    return _iterencode(o, 0)\n  File "c:\\python27\\lib\\json\\encoder.py", line 233, in _encoder\n    o = o.decode(_encoding)\nLookupError: unknown encoding: windows1251\n'
p219
s.